
i-charger-m8.elf:     file format elf32-avr

Sections:
Idx Name          Size      VMA       LMA       File off  Algn
  0 .text         00001d12  00000000  00000000  00000094  2**1
                  CONTENTS, ALLOC, LOAD, READONLY, CODE
  1 .data         0000016c  00800060  00001d12  00001da6  2**0
                  CONTENTS, ALLOC, LOAD, DATA
  2 .bss          00000033  008001cc  008001cc  00001f12  2**0
                  ALLOC
  3 .debug_aranges 000002e0  00000000  00000000  00001f12  2**0
                  CONTENTS, READONLY, DEBUGGING
  4 .debug_pubnames 0000052e  00000000  00000000  000021f2  2**0
                  CONTENTS, READONLY, DEBUGGING
  5 .debug_info   0000400d  00000000  00000000  00002720  2**0
                  CONTENTS, READONLY, DEBUGGING
  6 .debug_abbrev 00001db2  00000000  00000000  0000672d  2**0
                  CONTENTS, READONLY, DEBUGGING
  7 .debug_line   0000259f  00000000  00000000  000084df  2**0
                  CONTENTS, READONLY, DEBUGGING
  8 .debug_frame  00000530  00000000  00000000  0000aa80  2**2
                  CONTENTS, READONLY, DEBUGGING
  9 .debug_str    00000710  00000000  00000000  0000afb0  2**0
                  CONTENTS, READONLY, DEBUGGING
 10 .debug_loc    000011e0  00000000  00000000  0000b6c0  2**0
                  CONTENTS, READONLY, DEBUGGING
 11 .debug_ranges 000000f8  00000000  00000000  0000c8a0  2**0
                  CONTENTS, READONLY, DEBUGGING

Disassembly of section .text:

00000000 <__vectors>:
       0:	12 c0       	rjmp	.+36     	; 0x26 <__ctors_end>
       2:	2c c0       	rjmp	.+88     	; 0x5c <__bad_interrupt>
       4:	2b c0       	rjmp	.+86     	; 0x5c <__bad_interrupt>
       6:	2a c0       	rjmp	.+84     	; 0x5c <__bad_interrupt>
       8:	29 c0       	rjmp	.+82     	; 0x5c <__bad_interrupt>
       a:	28 c0       	rjmp	.+80     	; 0x5c <__bad_interrupt>
       c:	27 c0       	rjmp	.+78     	; 0x5c <__bad_interrupt>
       e:	26 c0       	rjmp	.+76     	; 0x5c <__bad_interrupt>
      10:	25 c0       	rjmp	.+74     	; 0x5c <__bad_interrupt>
      12:	e6 c2       	rjmp	.+1484   	; 0x5e0 <__vector_9>
      14:	23 c0       	rjmp	.+70     	; 0x5c <__bad_interrupt>
      16:	22 c0       	rjmp	.+68     	; 0x5c <__bad_interrupt>
      18:	21 c0       	rjmp	.+66     	; 0x5c <__bad_interrupt>
      1a:	20 c0       	rjmp	.+64     	; 0x5c <__bad_interrupt>
      1c:	1f c0       	rjmp	.+62     	; 0x5c <__bad_interrupt>
      1e:	1e c0       	rjmp	.+60     	; 0x5c <__bad_interrupt>
      20:	1d c0       	rjmp	.+58     	; 0x5c <__bad_interrupt>
      22:	1c c0       	rjmp	.+56     	; 0x5c <__bad_interrupt>
      24:	1b c0       	rjmp	.+54     	; 0x5c <__bad_interrupt>

00000026 <__ctors_end>:
      26:	11 24       	eor	r1, r1
      28:	1f be       	out	0x3f, r1	; 63
      2a:	cf e5       	ldi	r28, 0x5F	; 95
      2c:	d4 e0       	ldi	r29, 0x04	; 4
      2e:	de bf       	out	0x3e, r29	; 62
      30:	cd bf       	out	0x3d, r28	; 61

00000032 <__do_copy_data>:
      32:	11 e0       	ldi	r17, 0x01	; 1
      34:	a0 e6       	ldi	r26, 0x60	; 96
      36:	b0 e0       	ldi	r27, 0x00	; 0
      38:	e2 e1       	ldi	r30, 0x12	; 18
      3a:	fd e1       	ldi	r31, 0x1D	; 29
      3c:	02 c0       	rjmp	.+4      	; 0x42 <.do_copy_data_start>

0000003e <.do_copy_data_loop>:
      3e:	05 90       	lpm	r0, Z+
      40:	0d 92       	st	X+, r0

00000042 <.do_copy_data_start>:
      42:	ac 3c       	cpi	r26, 0xCC	; 204
      44:	b1 07       	cpc	r27, r17
      46:	d9 f7       	brne	.-10     	; 0x3e <.do_copy_data_loop>

00000048 <__do_clear_bss>:
      48:	11 e0       	ldi	r17, 0x01	; 1
      4a:	ac ec       	ldi	r26, 0xCC	; 204
      4c:	b1 e0       	ldi	r27, 0x01	; 1
      4e:	01 c0       	rjmp	.+2      	; 0x52 <.do_clear_bss_start>

00000050 <.do_clear_bss_loop>:
      50:	1d 92       	st	X+, r1

00000052 <.do_clear_bss_start>:
      52:	af 3f       	cpi	r26, 0xFF	; 255
      54:	b1 07       	cpc	r27, r17
      56:	e1 f7       	brne	.-8      	; 0x50 <.do_clear_bss_loop>
      58:	47 d0       	rcall	.+142    	; 0xe8 <main>
      5a:	59 ce       	rjmp	.-846    	; 0xfffffd0e <__eeprom_end+0xff7efd0e>

0000005c <__bad_interrupt>:
      5c:	d1 cf       	rjmp	.-94     	; 0x0 <__vectors>

0000005e <keydown>:
       return 0										\


char keydown()
{
   _test_key(KEY1);
      5e:	82 9b       	sbis	0x10, 2	; 16
      60:	02 c0       	rjmp	.+4      	; 0x66 <keydown+0x8>
      62:	80 e0       	ldi	r24, 0x00	; 0
      64:	08 95       	ret
    milliseconds can be achieved.
 */
void
_delay_loop_2(uint16_t __count)
{
	__asm__ volatile (
      66:	88 e5       	ldi	r24, 0x58	; 88
      68:	9b e1       	ldi	r25, 0x1B	; 27
      6a:	01 97       	sbiw	r24, 0x01	; 1
      6c:	f1 f7       	brne	.-4      	; 0x6a <keydown+0xc>
      6e:	80 b3       	in	r24, 0x10	; 16
      70:	86 95       	lsr	r24
      72:	86 95       	lsr	r24
      74:	80 95       	com	r24
      76:	81 70       	andi	r24, 0x01	; 1
}
      78:	08 95       	ret

0000007a <keyup>:
char keyup()
{
   _test_key(KEY2);
      7a:	83 9b       	sbis	0x10, 3	; 16
      7c:	02 c0       	rjmp	.+4      	; 0x82 <keyup+0x8>
      7e:	80 e0       	ldi	r24, 0x00	; 0
      80:	08 95       	ret
      82:	88 e5       	ldi	r24, 0x58	; 88
      84:	9b e1       	ldi	r25, 0x1B	; 27
      86:	01 97       	sbiw	r24, 0x01	; 1
      88:	f1 f7       	brne	.-4      	; 0x86 <keyup+0xc>
      8a:	80 b3       	in	r24, 0x10	; 16
      8c:	86 95       	lsr	r24
      8e:	86 95       	lsr	r24
      90:	86 95       	lsr	r24
      92:	80 95       	com	r24
      94:	81 70       	andi	r24, 0x01	; 1
}
      96:	08 95       	ret

00000098 <updata_lcd>:
void print10(unsigned short n);
void updata_lcd(void)
{
   long x;
   
   ic_update_lcd(&charger);
      98:	8e ed       	ldi	r24, 0xDE	; 222
      9a:	91 e0       	ldi	r25, 0x01	; 1
      9c:	7f d3       	rcall	.+1790   	; 0x79c <ic_update_lcd>

   lcd_cursor(0,1);
      9e:	80 e0       	ldi	r24, 0x00	; 0
      a0:	90 e0       	ldi	r25, 0x00	; 0
      a2:	61 e0       	ldi	r22, 0x01	; 1
      a4:	70 e0       	ldi	r23, 0x00	; 0
      a6:	47 d2       	rcall	.+1166   	; 0x536 <lcd_cursor>
   x = adc_A()*1000;
      a8:	b0 d4       	rcall	.+2400   	; 0xa0a <adc_A>
   print10(x);
      aa:	20 e0       	ldi	r18, 0x00	; 0
      ac:	30 e0       	ldi	r19, 0x00	; 0
      ae:	4a e7       	ldi	r20, 0x7A	; 122
      b0:	54 e4       	ldi	r21, 0x44	; 68
      b2:	fa d8       	rcall	.-3596   	; 0xfffff2a8 <__eeprom_end+0xff7ef2a8>
      b4:	9b db       	rcall	.-2250   	; 0xfffff7ec <__eeprom_end+0xff7ef7ec>
      b6:	dc 01       	movw	r26, r24
      b8:	cb 01       	movw	r24, r22
      ba:	ed d1       	rcall	.+986    	; 0x496 <print10>
   lcd_puts("mA");
      bc:	80 e6       	ldi	r24, 0x60	; 96
      be:	90 e0       	ldi	r25, 0x00	; 0
      c0:	dd d1       	rcall	.+954    	; 0x47c <lcd_puts>
   lcd_cursor(9,1);
      c2:	89 e0       	ldi	r24, 0x09	; 9
      c4:	90 e0       	ldi	r25, 0x00	; 0
      c6:	61 e0       	ldi	r22, 0x01	; 1
      c8:	70 e0       	ldi	r23, 0x00	; 0
      ca:	35 d2       	rcall	.+1130   	; 0x536 <lcd_cursor>
   x= adc_V()*1000;
      cc:	1c d5       	rcall	.+2616   	; 0xb06 <adc_V>
   print10(x);
      ce:	20 e0       	ldi	r18, 0x00	; 0
      d0:	30 e0       	ldi	r19, 0x00	; 0
      d2:	4a e7       	ldi	r20, 0x7A	; 122
      d4:	54 e4       	ldi	r21, 0x44	; 68
      d6:	e8 d8       	rcall	.-3632   	; 0xfffff2a8 <__eeprom_end+0xff7ef2a8>
      d8:	89 db       	rcall	.-2286   	; 0xfffff7ec <__eeprom_end+0xff7ef7ec>
      da:	dc 01       	movw	r26, r24
      dc:	cb 01       	movw	r24, r22
      de:	db d1       	rcall	.+950    	; 0x496 <print10>
   lcd_puts("mV");
      e0:	83 e6       	ldi	r24, 0x63	; 99
      e2:	90 e0       	ldi	r25, 0x00	; 0
      e4:	cb d1       	rcall	.+918    	; 0x47c <lcd_puts>
}
      e6:	08 95       	ret

000000e8 <main>:


int main()
{
      e8:	0f 93       	push	r16
      ea:	1f 93       	push	r17
      ec:	cf 93       	push	r28
      ee:	df 93       	push	r29

    char force_stop = 0;
	init_ic(&charger);
      f0:	8e ed       	ldi	r24, 0xDE	; 222
      f2:	91 e0       	ldi	r25, 0x01	; 1
      f4:	e0 d2       	rcall	.+1472   	; 0x6b6 <init_ic>
    cli();
      f6:	f8 94       	cli
    led_init();
      f8:	34 d0       	rcall	.+104    	; 0x162 <led_init>
    _key_init();
      fa:	82 e3       	ldi	r24, 0x32	; 50
      fc:	90 e0       	ldi	r25, 0x00	; 0
      fe:	60 e0       	ldi	r22, 0x00	; 0
     100:	42 e0       	ldi	r20, 0x02	; 2
     102:	22 e0       	ldi	r18, 0x02	; 2
     104:	99 d0       	rcall	.+306    	; 0x238 <__set_port_mode>
     106:	82 e3       	ldi	r24, 0x32	; 50
     108:	90 e0       	ldi	r25, 0x00	; 0
     10a:	60 e0       	ldi	r22, 0x00	; 0
     10c:	43 e0       	ldi	r20, 0x03	; 3
     10e:	23 e0       	ldi	r18, 0x03	; 3
     110:	93 d0       	rcall	.+294    	; 0x238 <__set_port_mode>
	   _rswe();
	  _delay_ms(100);
	}
#endif 
    
	pwm_init();
     112:	43 d0       	rcall	.+134    	; 0x19a <pwm_init>
	pwm_setduty(0);
     114:	80 e0       	ldi	r24, 0x00	; 0
     116:	3a d0       	rcall	.+116    	; 0x18c <pwm_setduty>

    adc_init();
     118:	47 d2       	rcall	.+1166   	; 0x5a8 <adc_init>


	lcd1602_init();
     11a:	17 d2       	rcall	.+1070   	; 0x54a <lcd1602_init>
	//lcd_puts("Digital TOY");
	//lcd_cursor(1,1);
	//lcd_puts(" i-charger V0.5");
	//lcd_scroll(-1);
	
	timer0_init();
     11c:	be d2       	rcall	.+1404   	; 0x69a <timer0_init>
	enable_timer0();
     11e:	c2 d2       	rcall	.+1412   	; 0x6a4 <enable_timer0>
    sei();
     120:	78 94       	sei
     122:	00 e0       	ldi	r16, 0x00	; 0
     124:	10 e0       	ldi	r17, 0x00	; 0
     126:	c4 e6       	ldi	r28, 0x64	; 100
     128:	d0 e0       	ldi	r29, 0x00	; 0
    char pwm =0;
	    
	while (1){
	    if(!force_stop)
     12a:	11 23       	and	r17, r17
     12c:	19 f4       	brne	.+6      	; 0x134 <main+0x4c>
		   charging(&charger);
     12e:	8e ed       	ldi	r24, 0xDE	; 222
     130:	91 e0       	ldi	r25, 0x01	; 1
     132:	d4 d6       	rcall	.+3496   	; 0xedc <charging>

		updata_lcd();
     134:	b1 df       	rcall	.-158    	; 0x98 <updata_lcd>
     136:	80 ed       	ldi	r24, 0xD0	; 208
     138:	97 e0       	ldi	r25, 0x07	; 7
     13a:	fe 01       	movw	r30, r28
     13c:	31 97       	sbiw	r30, 0x01	; 1
     13e:	f1 f7       	brne	.-4      	; 0x13c <main+0x54>
		__ticks = (uint16_t) (__ms * 10.0);
		while(__ticks)
		{
			// wait 1/10 ms
			_delay_loop_2(((F_CPU) / 4e3) / 10);
			__ticks --;
     140:	01 97       	sbiw	r24, 0x01	; 1
		__ticks = 1;
	else if (__tmp > 65535)
	{
		//	__ticks = requested delay in 1/10 ms
		__ticks = (uint16_t) (__ms * 10.0);
		while(__ticks)
     142:	d9 f7       	brne	.-10     	; 0x13a <main+0x52>
	
		_delay_ms(200);
		
        //sharp_flash();
	    //pwm_demo();
        if( keydown()){
     144:	8c df       	rcall	.-232    	; 0x5e <keydown>
     146:	88 23       	and	r24, r24
     148:	29 f0       	breq	.+10     	; 0x154 <main+0x6c>
            pwm =  pwm_getduty();
     14a:	24 d0       	rcall	.+72     	; 0x194 <pwm_getduty>
     14c:	08 2f       	mov	r16, r24
			pwm_setduty(0);
     14e:	80 e0       	ldi	r24, 0x00	; 0
     150:	1d d0       	rcall	.+58     	; 0x18c <pwm_setduty>
     152:	11 e0       	ldi	r17, 0x01	; 1
			force_stop = 1;
		 }  
		 if( keyup()){
     154:	92 df       	rcall	.-220    	; 0x7a <keyup>
     156:	88 23       	and	r24, r24
     158:	41 f3       	breq	.-48     	; 0x12a <main+0x42>
            
			pwm_setduty(pwm);
     15a:	80 2f       	mov	r24, r16
     15c:	17 d0       	rcall	.+46     	; 0x18c <pwm_setduty>
     15e:	10 e0       	ldi	r17, 0x00	; 0
     160:	e6 cf       	rjmp	.-52     	; 0x12e <main+0x46>

00000162 <led_init>:
{
	/* 往前步进 */
    char i;
		for (i = 0; i < 3; i++){

			_pins_mode(LED_PORT,0,1,OUTPUT);//_nm8(0b11,0,1);
     162:	82 e3       	ldi	r24, 0x32	; 50
     164:	90 e0       	ldi	r25, 0x00	; 0
     166:	61 e0       	ldi	r22, 0x01	; 1
     168:	40 e0       	ldi	r20, 0x00	; 0
     16a:	21 e0       	ldi	r18, 0x01	; 1
     16c:	65 d0       	rcall	.+202    	; 0x238 <__set_port_mode>
     16e:	82 e3       	ldi	r24, 0x32	; 50
     170:	90 e0       	ldi	r25, 0x00	; 0
     172:	61 e0       	ldi	r22, 0x01	; 1
     174:	40 e0       	ldi	r20, 0x00	; 0
     176:	21 e0       	ldi	r18, 0x01	; 1
     178:	5f d0       	rcall	.+190    	; 0x238 <__set_port_mode>
     17a:	82 e3       	ldi	r24, 0x32	; 50
     17c:	90 e0       	ldi	r25, 0x00	; 0
     17e:	61 e0       	ldi	r22, 0x01	; 1
     180:	40 e0       	ldi	r20, 0x00	; 0
     182:	21 e0       	ldi	r18, 0x01	; 1
     184:	59 d0       	rcall	.+178    	; 0x238 <__set_port_mode>
	//		_delay_ms(200);
 	//	    LED_Off(0);
 	//	    LED_Off(1);
	//		_delay_ms(200);
		}
  LED_Off(0);
     186:	90 9a       	sbi	0x12, 0	; 18
  LED_Off(1);
     188:	91 9a       	sbi	0x12, 1	; 18
}	
     18a:	08 95       	ret

0000018c <pwm_setduty>:

}

void pwm_setduty(unsigned char duty)
{
  OCR1A = duty;
     18c:	90 e0       	ldi	r25, 0x00	; 0
     18e:	9b bd       	out	0x2b, r25	; 43
     190:	8a bd       	out	0x2a, r24	; 42
}
     192:	08 95       	ret

00000194 <pwm_getduty>:

unsigned char pwm_getduty()
{
  return OCR1A;
     194:	8a b5       	in	r24, 0x2a	; 42
     196:	9b b5       	in	r25, 0x2b	; 43
}
     198:	08 95       	ret

0000019a <pwm_init>:

/*channal A, TOP= ICR1, match:OCR1A, PWMhz= 15khz , fcpu=4Mhz*/
void pwm_init()
{

  TCCR1A  =   (_bits8(0b10,WGM10,WGM11) )  |  ( _bits8(0b10, COM1A0,COM1A1) );  
     19a:	82 e8       	ldi	r24, 0x82	; 130
     19c:	8f bd       	out	0x2f, r24	; 47
  TCCR1B  =   (_bits8(0b001, CS10,CS12))  | (_bits8(0b11,WGM12,WGM13));     
     19e:	89 e1       	ldi	r24, 0x19	; 25
     1a0:	8e bd       	out	0x2e, r24	; 46
  TCNT1  = 0;
     1a2:	1d bc       	out	0x2d, r1	; 45
     1a4:	1c bc       	out	0x2c, r1	; 44
  ICR1 = 0xff ;  /* top = 0; */
     1a6:	8f ef       	ldi	r24, 0xFF	; 255
     1a8:	90 e0       	ldi	r25, 0x00	; 0
     1aa:	97 bd       	out	0x27, r25	; 39
     1ac:	86 bd       	out	0x26, r24	; 38
  
  //only attiny13?  GTCCR = 1; /*reset prescaler*/
  _pin_mode(PORTB,1,OUTPUT);
     1ae:	88 e3       	ldi	r24, 0x38	; 56
     1b0:	90 e0       	ldi	r25, 0x00	; 0
     1b2:	61 e0       	ldi	r22, 0x01	; 1
     1b4:	41 e0       	ldi	r20, 0x01	; 1
     1b6:	21 e0       	ldi	r18, 0x01	; 1
     1b8:	3f d0       	rcall	.+126    	; 0x238 <__set_port_mode>

}
     1ba:	08 95       	ret

000001bc <shiftout>:
    _pins_mode(PORT_74HC595, CLK,SDI,OUTPUT);
}


void shiftout(unsigned char data)
{
     1bc:	20 e0       	ldi	r18, 0x00	; 0
     1be:	30 e0       	ldi	r19, 0x00	; 0
    can be achieved.
*/
void
_delay_loop_1(uint8_t __count)
{
	__asm__ volatile (
     1c0:	61 e0       	ldi	r22, 0x01	; 1
	char i=0;
	for(i=0;i<8;i++){
	   delay_io();
	  
	   if((data<<i)&0x80)
     1c2:	48 2f       	mov	r20, r24
     1c4:	50 e0       	ldi	r21, 0x00	; 0
     1c6:	86 2f       	mov	r24, r22
     1c8:	8a 95       	dec	r24
     1ca:	f1 f7       	brne	.-4      	; 0x1c8 <shiftout+0xc>
     1cc:	ca 01       	movw	r24, r20
     1ce:	02 2e       	mov	r0, r18
     1d0:	02 c0       	rjmp	.+4      	; 0x1d6 <shiftout+0x1a>
     1d2:	88 0f       	add	r24, r24
     1d4:	99 1f       	adc	r25, r25
     1d6:	0a 94       	dec	r0
     1d8:	e2 f7       	brpl	.-8      	; 0x1d2 <shiftout+0x16>
     1da:	87 ff       	sbrs	r24, 7
     1dc:	02 c0       	rjmp	.+4      	; 0x1e2 <shiftout+0x26>
	     _set_bit(PORT_74HC595, SDI);
     1de:	97 9a       	sbi	0x12, 7	; 18
     1e0:	01 c0       	rjmp	.+2      	; 0x1e4 <shiftout+0x28>
	   else
	     _clear_bit(PORT_74HC595, SDI);
     1e2:	97 98       	cbi	0x12, 7	; 18
     1e4:	86 2f       	mov	r24, r22
     1e6:	8a 95       	dec	r24
     1e8:	f1 f7       	brne	.-4      	; 0x1e6 <shiftout+0x2a>

	   delay_io();
	  _set_bit(PORT_74HC595,CLK); 
     1ea:	95 9a       	sbi	0x12, 5	; 18
     1ec:	86 2f       	mov	r24, r22
     1ee:	8a 95       	dec	r24
     1f0:	f1 f7       	brne	.-4      	; 0x1ee <shiftout+0x32>
       delay_io();
	  _clear_bit(PORT_74HC595, CLK);
     1f2:	95 98       	cbi	0x12, 5	; 18
     1f4:	2f 5f       	subi	r18, 0xFF	; 255
     1f6:	3f 4f       	sbci	r19, 0xFF	; 255


void shiftout(unsigned char data)
{
	char i=0;
	for(i=0;i<8;i++){
     1f8:	28 30       	cpi	r18, 0x08	; 8
     1fa:	31 05       	cpc	r19, r1
     1fc:	21 f7       	brne	.-56     	; 0x1c6 <shiftout+0xa>
       delay_io();
	  _clear_bit(PORT_74HC595, CLK);
	  		
   }

}
     1fe:	08 95       	ret

00000200 <write_74hc595>:
void write_74hc595(unsigned char data)
{
     200:	1f 93       	push	r17
     202:	11 e0       	ldi	r17, 0x01	; 1
     204:	91 2f       	mov	r25, r17
     206:	9a 95       	dec	r25
     208:	f1 f7       	brne	.-4      	; 0x206 <write_74hc595+0x6>
	//_clear_bit(PORT_74HC595,CLK); //prepare send data
	delay_io();
      
	shiftout(data);
     20a:	d8 df       	rcall	.-80     	; 0x1bc <shiftout>
     20c:	81 2f       	mov	r24, r17
     20e:	8a 95       	dec	r24
     210:	f1 f7       	brne	.-4      	; 0x20e <write_74hc595+0xe>
    
	delay_io();
    _set_bit(PORT_74HC595,LATCH); //prepare open latch
     212:	96 9a       	sbi	0x12, 6	; 18
     214:	81 2f       	mov	r24, r17
     216:	8a 95       	dec	r24
     218:	f1 f7       	brne	.-4      	; 0x216 <write_74hc595+0x16>
     delay_io();
	 delay_io();
     delay_io();
    _clear_bit(PORT_74HC595,LATCH); //prepare open latch
     21a:	81 2f       	mov	r24, r17
     21c:	8a 95       	dec	r24
     21e:	f1 f7       	brne	.-4      	; 0x21c <write_74hc595+0x1c>
     220:	1a 95       	dec	r17
     222:	f1 f7       	brne	.-4      	; 0x220 <write_74hc595+0x20>
     224:	96 98       	cbi	0x12, 6	; 18
   
}
     226:	1f 91       	pop	r17
     228:	08 95       	ret

0000022a <init_74hc595>:


void init_74hc595(void)

{
    _pins_mode(PORT_74HC595, CLK,SDI,OUTPUT);
     22a:	82 e3       	ldi	r24, 0x32	; 50
     22c:	90 e0       	ldi	r25, 0x00	; 0
     22e:	61 e0       	ldi	r22, 0x01	; 1
     230:	45 e0       	ldi	r20, 0x05	; 5
     232:	27 e0       	ldi	r18, 0x07	; 7
     234:	01 d0       	rcall	.+2      	; 0x238 <__set_port_mode>
}
     236:	08 95       	ret

00000238 <__set_port_mode>:
#include "include/avrio.h"


void __set_port_mode(volatile char* port_addr, char mode, char n, char m)
{
     238:	cf 93       	push	r28
     23a:	df 93       	push	r29
     23c:	dc 01       	movw	r26, r24
     23e:	74 2f       	mov	r23, r20
     240:	52 2f       	mov	r21, r18
	if(INPUT == mode){
     242:	66 23       	and	r22, r22
     244:	e9 f4       	brne	.+58     	; 0x280 <__set_port_mode+0x48>
    	/* DDR */
		(*(volatile uint8_t *)(port_addr-1) ) &= ~(_MASK8(n,m));  /*enable input*/  
     246:	fc 01       	movw	r30, r24
     248:	42 91       	ld	r20, -Z
     24a:	27 e0       	ldi	r18, 0x07	; 7
     24c:	30 e0       	ldi	r19, 0x00	; 0
     24e:	25 1b       	sub	r18, r21
     250:	31 09       	sbc	r19, r1
     252:	8f ef       	ldi	r24, 0xFF	; 255
     254:	90 e0       	ldi	r25, 0x00	; 0
     256:	ec 01       	movw	r28, r24
     258:	02 c0       	rjmp	.+4      	; 0x25e <__set_port_mode+0x26>
     25a:	d5 95       	asr	r29
     25c:	c7 95       	ror	r28
     25e:	2a 95       	dec	r18
     260:	e2 f7       	brpl	.-8      	; 0x25a <__set_port_mode+0x22>
     262:	9e 01       	movw	r18, r28
     264:	02 c0       	rjmp	.+4      	; 0x26a <__set_port_mode+0x32>
     266:	88 0f       	add	r24, r24
     268:	99 1f       	adc	r25, r25
     26a:	7a 95       	dec	r23
     26c:	e2 f7       	brpl	.-8      	; 0x266 <__set_port_mode+0x2e>
     26e:	28 23       	and	r18, r24
     270:	82 2f       	mov	r24, r18
     272:	80 95       	com	r24
     274:	84 23       	and	r24, r20
     276:	80 83       	st	Z, r24
    	/* PORT */
		(*(volatile uint8_t *)port_addr) |= (_MASK8(n,m)) ; /*pull-up-enable*/  
     278:	8c 91       	ld	r24, X
     27a:	28 2b       	or	r18, r24
     27c:	2c 93       	st	X, r18
     27e:	19 c0       	rjmp	.+50     	; 0x2b2 <__set_port_mode+0x7a>
	}else if(OUTPUT == mode){
     280:	61 30       	cpi	r22, 0x01	; 1
     282:	b9 f4       	brne	.+46     	; 0x2b2 <__set_port_mode+0x7a>
		/* DDR */
		(*(volatile uint8_t *)(port_addr-1) ) |= _MASK8(n,m);  /*enable output*/  
     284:	fc 01       	movw	r30, r24
     286:	42 91       	ld	r20, -Z
     288:	87 e0       	ldi	r24, 0x07	; 7
     28a:	90 e0       	ldi	r25, 0x00	; 0
     28c:	82 1b       	sub	r24, r18
     28e:	91 09       	sbc	r25, r1
     290:	2f ef       	ldi	r18, 0xFF	; 255
     292:	30 e0       	ldi	r19, 0x00	; 0
     294:	d9 01       	movw	r26, r18
     296:	02 c0       	rjmp	.+4      	; 0x29c <__set_port_mode+0x64>
     298:	b5 95       	asr	r27
     29a:	a7 95       	ror	r26
     29c:	8a 95       	dec	r24
     29e:	e2 f7       	brpl	.-8      	; 0x298 <__set_port_mode+0x60>
     2a0:	cd 01       	movw	r24, r26
     2a2:	02 c0       	rjmp	.+4      	; 0x2a8 <__set_port_mode+0x70>
     2a4:	22 0f       	add	r18, r18
     2a6:	33 1f       	adc	r19, r19
     2a8:	7a 95       	dec	r23
     2aa:	e2 f7       	brpl	.-8      	; 0x2a4 <__set_port_mode+0x6c>
     2ac:	82 23       	and	r24, r18
     2ae:	84 2b       	or	r24, r20
     2b0:	80 83       	st	Z, r24
   	}

    //panic();
	//DDRx &= ~(1<< DDx##n);  /*enable input*/   
	//PORTx |= (1<< PX##n)    /*pull-up-enable*/  
}
     2b2:	df 91       	pop	r29
     2b4:	cf 91       	pop	r28
     2b6:	08 95       	ret

000002b8 <delay>:

/*0-64 seconds*/
void delay(unsigned long ticks)
{
     2b8:	ef 92       	push	r14
     2ba:	ff 92       	push	r15
     2bc:	0f 93       	push	r16
     2be:	1f 93       	push	r17
     2c0:	9b 01       	movw	r18, r22
     2c2:	ac 01       	movw	r20, r24
  
   unsigned long long lt = jiffers;
     2c4:	80 91 d5 01 	lds	r24, 0x01D5
     2c8:	90 91 d6 01 	lds	r25, 0x01D6
     2cc:	a0 91 d7 01 	lds	r26, 0x01D7
     2d0:	b0 91 d8 01 	lds	r27, 0x01D8

   while(!timeafter(jiffers,(lt+ ticks)));
     2d4:	28 0f       	add	r18, r24
     2d6:	39 1f       	adc	r19, r25
     2d8:	4a 1f       	adc	r20, r26
     2da:	5b 1f       	adc	r21, r27
     2dc:	80 91 d5 01 	lds	r24, 0x01D5
     2e0:	90 91 d6 01 	lds	r25, 0x01D6
     2e4:	a0 91 d7 01 	lds	r26, 0x01D7
     2e8:	b0 91 d8 01 	lds	r27, 0x01D8
     2ec:	79 01       	movw	r14, r18
     2ee:	8a 01       	movw	r16, r20
     2f0:	e8 1a       	sub	r14, r24
     2f2:	f9 0a       	sbc	r15, r25
     2f4:	0a 0b       	sbc	r16, r26
     2f6:	1b 0b       	sbc	r17, r27
     2f8:	17 ff       	sbrs	r17, 7
     2fa:	f0 cf       	rjmp	.-32     	; 0x2dc <delay+0x24>
   
   return;

}
     2fc:	1f 91       	pop	r17
     2fe:	0f 91       	pop	r16
     300:	ff 90       	pop	r15
     302:	ef 90       	pop	r14
     304:	08 95       	ret

00000306 <io_delay>:
     306:	82 e1       	ldi	r24, 0x12	; 18
     308:	8a 95       	dec	r24
     30a:	f1 f7       	brne	.-4      	; 0x308 <io_delay+0x2>
 for safe and reserve space, use function and 12us	
*/
void io_delay()
{
   _delay_us(14);
}
     30c:	08 95       	ret

0000030e <io_50ms>:
    milliseconds can be achieved.
 */
void
_delay_loop_2(uint16_t __count)
{
	__asm__ volatile (
     30e:	80 e5       	ldi	r24, 0x50	; 80
     310:	93 ec       	ldi	r25, 0xC3	; 195
     312:	01 97       	sbiw	r24, 0x01	; 1
     314:	f1 f7       	brne	.-4      	; 0x312 <io_50ms+0x4>
void io_50ms()
{
   _delay_ms(50);
}
     316:	08 95       	ret

00000318 <hex2c>:


char hex2c(char hex)
{

   if(hex<0xa)
     318:	8a 30       	cpi	r24, 0x0A	; 10
     31a:	10 f4       	brcc	.+4      	; 0x320 <hex2c+0x8>
      return '0'+hex;
     31c:	80 5d       	subi	r24, 0xD0	; 208
     31e:	08 95       	ret
   else
      return 'a'+hex-0xa;
     320:	89 5a       	subi	r24, 0xA9	; 169
}
     322:	08 95       	ret

00000324 <_rswe>:
   /*    0    1    2     3     4  5 6  7  */
  /*         d7    d6   d5     d4 e rw rs*/
   #define m(d,s)   _mov_bits8(t,bus4w,d,d,s,s);
    /*100 bytes code*/
	  char t=0;
	  m(5,3); m(6,2);m(7,1);
     324:	60 91 ce 01 	lds	r22, 0x01CE
     328:	46 2f       	mov	r20, r22
     32a:	50 e0       	ldi	r21, 0x00	; 0
	  m(1,7); m(2,6);m(3,5);m(4,4);
     32c:	ca 01       	movw	r24, r20
     32e:	88 70       	andi	r24, 0x08	; 8
     330:	90 70       	andi	r25, 0x00	; 0
     332:	33 e0       	ldi	r19, 0x03	; 3
     334:	95 95       	asr	r25
     336:	87 95       	ror	r24
     338:	3a 95       	dec	r19
     33a:	e1 f7       	brne	.-8      	; 0x334 <_rswe+0x10>
     33c:	25 e0       	ldi	r18, 0x05	; 5
     33e:	88 0f       	add	r24, r24
     340:	99 1f       	adc	r25, r25
     342:	2a 95       	dec	r18
     344:	e1 f7       	brne	.-8      	; 0x33e <_rswe+0x1a>
     346:	8f 7b       	andi	r24, 0xBF	; 191
     348:	9a 01       	movw	r18, r20
     34a:	24 70       	andi	r18, 0x04	; 4
     34c:	30 70       	andi	r19, 0x00	; 0
     34e:	35 95       	asr	r19
     350:	27 95       	ror	r18
     352:	35 95       	asr	r19
     354:	27 95       	ror	r18
     356:	b6 e0       	ldi	r27, 0x06	; 6
     358:	22 0f       	add	r18, r18
     35a:	33 1f       	adc	r19, r19
     35c:	ba 95       	dec	r27
     35e:	e1 f7       	brne	.-8      	; 0x358 <_rswe+0x34>
     360:	82 2b       	or	r24, r18
     362:	8f 77       	andi	r24, 0x7F	; 127
     364:	9a 01       	movw	r18, r20
     366:	22 70       	andi	r18, 0x02	; 2
     368:	30 70       	andi	r19, 0x00	; 0
     36a:	35 95       	asr	r19
     36c:	27 95       	ror	r18
     36e:	36 95       	lsr	r19
     370:	32 2f       	mov	r19, r18
     372:	22 27       	eor	r18, r18
     374:	37 95       	ror	r19
     376:	27 95       	ror	r18
     378:	82 2b       	or	r24, r18
     37a:	26 2f       	mov	r18, r22
     37c:	22 1f       	adc	r18, r18
     37e:	22 27       	eor	r18, r18
     380:	22 1f       	adc	r18, r18
     382:	22 0f       	add	r18, r18
     384:	89 7f       	andi	r24, 0xF9	; 249
     386:	82 2b       	or	r24, r18
     388:	9a 01       	movw	r18, r20
     38a:	20 74       	andi	r18, 0x40	; 64
     38c:	30 70       	andi	r19, 0x00	; 0
     38e:	e6 e0       	ldi	r30, 0x06	; 6
     390:	35 95       	asr	r19
     392:	27 95       	ror	r18
     394:	ea 95       	dec	r30
     396:	e1 f7       	brne	.-8      	; 0x390 <_rswe+0x6c>
     398:	22 0f       	add	r18, r18
     39a:	33 1f       	adc	r19, r19
     39c:	22 0f       	add	r18, r18
     39e:	33 1f       	adc	r19, r19
     3a0:	82 2b       	or	r24, r18
     3a2:	87 7f       	andi	r24, 0xF7	; 247
     3a4:	40 72       	andi	r20, 0x20	; 32
     3a6:	50 70       	andi	r21, 0x00	; 0
     3a8:	25 e0       	ldi	r18, 0x05	; 5
     3aa:	55 95       	asr	r21
     3ac:	47 95       	ror	r20
     3ae:	2a 95       	dec	r18
     3b0:	e1 f7       	brne	.-8      	; 0x3aa <_rswe+0x86>
     3b2:	93 e0       	ldi	r25, 0x03	; 3
     3b4:	44 0f       	add	r20, r20
     3b6:	55 1f       	adc	r21, r21
     3b8:	9a 95       	dec	r25
     3ba:	e1 f7       	brne	.-8      	; 0x3b4 <_rswe+0x90>
     3bc:	84 2b       	or	r24, r20
     3be:	8f 7e       	andi	r24, 0xEF	; 239
     3c0:	60 71       	andi	r22, 0x10	; 16

	  write_74hc595(t);
     3c2:	86 2b       	or	r24, r22
     3c4:	90 e0       	ldi	r25, 0x00	; 0
     3c6:	1c df       	rcall	.-456    	; 0x200 <write_74hc595>
  } 
     3c8:	08 95       	ret

000003ca <hd44870_send>:
{
   _delay_ms(50);
}

static void hd44870_send(unsigned char data, char is_cmd) 
{
     3ca:	0f 93       	push	r16
     3cc:	1f 93       	push	r17
     3ce:	08 2f       	mov	r16, r24
     3d0:	16 2f       	mov	r17, r22
    can be achieved.
*/
void
_delay_loop_1(uint8_t __count)
{
	__asm__ volatile (
     3d2:	82 e1       	ldi	r24, 0x12	; 18
     3d4:	8a 95       	dec	r24
     3d6:	f1 f7       	brne	.-4      	; 0x3d4 <hd44870_send+0xa>
  io_delay();
  
  bus4w &=~(_EN|_RW);       
     3d8:	80 91 ce 01 	lds	r24, 0x01CE
     3dc:	83 7f       	andi	r24, 0xF3	; 243
     3de:	80 93 ce 01 	sts	0x01CE, r24
  _rswe();
     3e2:	a0 df       	rcall	.-192    	; 0x324 <_rswe>
     3e4:	80 91 ce 01 	lds	r24, 0x01CE
  //io_delay();
  
  if(is_cmd)
     3e8:	11 23       	and	r17, r17
     3ea:	11 f0       	breq	.+4      	; 0x3f0 <hd44870_send+0x26>
  	 bus4w&=~_RS;  //RS=0，command
     3ec:	8d 7f       	andi	r24, 0xFD	; 253
     3ee:	01 c0       	rjmp	.+2      	; 0x3f2 <hd44870_send+0x28>
  else
  	 bus4w|=_RS;  //RS=1, data
     3f0:	82 60       	ori	r24, 0x02	; 2
     3f2:	80 93 ce 01 	sts	0x01CE, r24
  _rswe();
     3f6:	96 df       	rcall	.-212    	; 0x324 <_rswe>
     3f8:	12 e1       	ldi	r17, 0x12	; 18
     3fa:	81 2f       	mov	r24, r17
     3fc:	8a 95       	dec	r24
     3fe:	f1 f7       	brne	.-4      	; 0x3fc <hd44870_send+0x32>
  io_delay();
  
  /* 4 MSB*/
  bus4w &= ~(_DATA);    
  bus4w |= data&_DATA; 
     400:	90 2f       	mov	r25, r16
     402:	90 7f       	andi	r25, 0xF0	; 240
     404:	80 91 ce 01 	lds	r24, 0x01CE
     408:	8f 70       	andi	r24, 0x0F	; 15
     40a:	98 2b       	or	r25, r24
     40c:	90 93 ce 01 	sts	0x01CE, r25
  _data();
     410:	89 df       	rcall	.-238    	; 0x324 <_rswe>
     412:	81 2f       	mov	r24, r17
     414:	8a 95       	dec	r24
     416:	f1 f7       	brne	.-4      	; 0x414 <hd44870_send+0x4a>
  
  io_delay();
  bus4w |=_EN;  
     418:	80 91 ce 01 	lds	r24, 0x01CE
     41c:	88 60       	ori	r24, 0x08	; 8
     41e:	80 93 ce 01 	sts	0x01CE, r24
  _rswe();
     422:	80 df       	rcall	.-256    	; 0x324 <_rswe>
     424:	81 2f       	mov	r24, r17
     426:	8a 95       	dec	r24
     428:	f1 f7       	brne	.-4      	; 0x426 <hd44870_send+0x5c>
  io_delay(); 
  bus4w &=~_EN;   
     42a:	80 91 ce 01 	lds	r24, 0x01CE
     42e:	87 7f       	andi	r24, 0xF7	; 247
     430:	80 93 ce 01 	sts	0x01CE, r24
  _rswe();
     434:	77 df       	rcall	.-274    	; 0x324 <_rswe>
     436:	81 2f       	mov	r24, r17
     438:	8a 95       	dec	r24
     43a:	f1 f7       	brne	.-4      	; 0x438 <hd44870_send+0x6e>

  io_delay();
  
  /*send low 4 lsb*/
  bus4w&=~_DATA;         
  bus4w|=(data<<4)&_DATA; 
     43c:	02 95       	swap	r16
     43e:	00 7f       	andi	r16, 0xF0	; 240
     440:	80 91 ce 01 	lds	r24, 0x01CE
     444:	8f 70       	andi	r24, 0x0F	; 15
     446:	80 2b       	or	r24, r16
     448:	80 93 ce 01 	sts	0x01CE, r24
  _data();
     44c:	6b df       	rcall	.-298    	; 0x324 <_rswe>
     44e:	81 2f       	mov	r24, r17
     450:	8a 95       	dec	r24
     452:	f1 f7       	brne	.-4      	; 0x450 <hd44870_send+0x86>
  io_delay();

  bus4w |=_EN;  
     454:	80 91 ce 01 	lds	r24, 0x01CE
     458:	88 60       	ori	r24, 0x08	; 8
     45a:	80 93 ce 01 	sts	0x01CE, r24
  _rswe();
     45e:	62 df       	rcall	.-316    	; 0x324 <_rswe>
     460:	1a 95       	dec	r17
     462:	f1 f7       	brne	.-4      	; 0x460 <__stack+0x1>
  io_delay(); 
  bus4w &=~_EN;   
     464:	80 91 ce 01 	lds	r24, 0x01CE
     468:	87 7f       	andi	r24, 0xF7	; 247
     46a:	80 93 ce 01 	sts	0x01CE, r24
  _rswe();
     46e:	5a df       	rcall	.-332    	; 0x324 <_rswe>
  
  
}
     470:	1f 91       	pop	r17
     472:	0f 91       	pop	r16
     474:	08 95       	ret

00000476 <lcd_putc>:



void lcd_putc(char data) //列x=0~15,行y=0,1
{
  send_data( data);
     476:	60 e0       	ldi	r22, 0x00	; 0
     478:	a8 df       	rcall	.-176    	; 0x3ca <hd44870_send>
}
     47a:	08 95       	ret

0000047c <lcd_puts>:
{
	send_cmd(x+(y?0xc0:0x80));  
}

void lcd_puts(unsigned char *s) 
{
     47c:	cf 93       	push	r28
     47e:	df 93       	push	r29
     480:	ec 01       	movw	r28, r24
     482:	03 c0       	rjmp	.+6      	; 0x48a <lcd_puts+0xe>
    while (*s) 
    {
      send_data( *s );
     484:	60 e0       	ldi	r22, 0x00	; 0
     486:	a1 df       	rcall	.-190    	; 0x3ca <hd44870_send>
      s ++;
     488:	21 96       	adiw	r28, 0x01	; 1
	send_cmd(x+(y?0xc0:0x80));  
}

void lcd_puts(unsigned char *s) 
{
    while (*s) 
     48a:	88 81       	ld	r24, Y
     48c:	88 23       	and	r24, r24
     48e:	d1 f7       	brne	.-12     	; 0x484 <lcd_puts+0x8>
    {
      send_data( *s );
      s ++;
    }
     
}
     490:	df 91       	pop	r29
     492:	cf 91       	pop	r28
     494:	08 95       	ret

00000496 <print10>:
      return '0'+hex;
   else
      return 'a'+hex-0xa;
}
void print10(unsigned short n)
{
     496:	9c 01       	movw	r18, r24
     static char four[6];
     //irqoff();
	 four[0]= hex2c( (n/10000) );
     498:	60 e1       	ldi	r22, 0x10	; 16
     49a:	77 e2       	ldi	r23, 0x27	; 39
     49c:	ed db       	rcall	.-2086   	; 0xfffffc78 <__eeprom_end+0xff7efc78>


char hex2c(char hex)
{

   if(hex<0xa)
     49e:	6a 30       	cpi	r22, 0x0A	; 10
     4a0:	10 f4       	brcc	.+4      	; 0x4a6 <print10+0x10>
      return '0'+hex;
     4a2:	60 5d       	subi	r22, 0xD0	; 208
     4a4:	01 c0       	rjmp	.+2      	; 0x4a8 <print10+0x12>
   else
      return 'a'+hex-0xa;
     4a6:	69 5a       	subi	r22, 0xA9	; 169
}
void print10(unsigned short n)
{
     static char four[6];
     //irqoff();
	 four[0]= hex2c( (n/10000) );
     4a8:	60 93 cf 01 	sts	0x01CF, r22
	 n = n%10000;
     4ac:	c9 01       	movw	r24, r18
     4ae:	60 e1       	ldi	r22, 0x10	; 16
     4b0:	77 e2       	ldi	r23, 0x27	; 39
     4b2:	e2 db       	rcall	.-2108   	; 0xfffffc78 <__eeprom_end+0xff7efc78>
     4b4:	9c 01       	movw	r18, r24
	 four[1]= hex2c(n/1000);
     4b6:	68 ee       	ldi	r22, 0xE8	; 232
     4b8:	73 e0       	ldi	r23, 0x03	; 3
     4ba:	de db       	rcall	.-2116   	; 0xfffffc78 <__eeprom_end+0xff7efc78>


char hex2c(char hex)
{

   if(hex<0xa)
     4bc:	6a 30       	cpi	r22, 0x0A	; 10
     4be:	10 f4       	brcc	.+4      	; 0x4c4 <print10+0x2e>
      return '0'+hex;
     4c0:	60 5d       	subi	r22, 0xD0	; 208
     4c2:	01 c0       	rjmp	.+2      	; 0x4c6 <print10+0x30>
   else
      return 'a'+hex-0xa;
     4c4:	69 5a       	subi	r22, 0xA9	; 169
{
     static char four[6];
     //irqoff();
	 four[0]= hex2c( (n/10000) );
	 n = n%10000;
	 four[1]= hex2c(n/1000);
     4c6:	60 93 d0 01 	sts	0x01D0, r22
	 n = n%1000;
     4ca:	c9 01       	movw	r24, r18
     4cc:	68 ee       	ldi	r22, 0xE8	; 232
     4ce:	73 e0       	ldi	r23, 0x03	; 3
     4d0:	d3 db       	rcall	.-2138   	; 0xfffffc78 <__eeprom_end+0xff7efc78>
     4d2:	9c 01       	movw	r18, r24
		   	
	 four[2]= hex2c( (n/100) );
     4d4:	64 e6       	ldi	r22, 0x64	; 100
     4d6:	70 e0       	ldi	r23, 0x00	; 0
     4d8:	cf db       	rcall	.-2146   	; 0xfffffc78 <__eeprom_end+0xff7efc78>


char hex2c(char hex)
{

   if(hex<0xa)
     4da:	6a 30       	cpi	r22, 0x0A	; 10
     4dc:	10 f4       	brcc	.+4      	; 0x4e2 <print10+0x4c>
      return '0'+hex;
     4de:	60 5d       	subi	r22, 0xD0	; 208
     4e0:	01 c0       	rjmp	.+2      	; 0x4e4 <print10+0x4e>
   else
      return 'a'+hex-0xa;
     4e2:	69 5a       	subi	r22, 0xA9	; 169
	 four[0]= hex2c( (n/10000) );
	 n = n%10000;
	 four[1]= hex2c(n/1000);
	 n = n%1000;
		   	
	 four[2]= hex2c( (n/100) );
     4e4:	60 93 d1 01 	sts	0x01D1, r22
	 n = n%100;
     4e8:	c9 01       	movw	r24, r18
     4ea:	64 e6       	ldi	r22, 0x64	; 100
     4ec:	70 e0       	ldi	r23, 0x00	; 0
     4ee:	c4 db       	rcall	.-2168   	; 0xfffffc78 <__eeprom_end+0xff7efc78>
     4f0:	9c 01       	movw	r18, r24
	
	 four[3]= hex2c( (n/10) );
     4f2:	6a e0       	ldi	r22, 0x0A	; 10
     4f4:	70 e0       	ldi	r23, 0x00	; 0
     4f6:	c0 db       	rcall	.-2176   	; 0xfffffc78 <__eeprom_end+0xff7efc78>


char hex2c(char hex)
{

   if(hex<0xa)
     4f8:	6a 30       	cpi	r22, 0x0A	; 10
     4fa:	10 f4       	brcc	.+4      	; 0x500 <print10+0x6a>
      return '0'+hex;
     4fc:	60 5d       	subi	r22, 0xD0	; 208
     4fe:	01 c0       	rjmp	.+2      	; 0x502 <print10+0x6c>
   else
      return 'a'+hex-0xa;
     500:	69 5a       	subi	r22, 0xA9	; 169
	 n = n%1000;
		   	
	 four[2]= hex2c( (n/100) );
	 n = n%100;
	
	 four[3]= hex2c( (n/10) );
     502:	60 93 d2 01 	sts	0x01D2, r22
	 four[4]= hex2c( (n%10) );;
     506:	c9 01       	movw	r24, r18
     508:	6a e0       	ldi	r22, 0x0A	; 10
     50a:	70 e0       	ldi	r23, 0x00	; 0
     50c:	b5 db       	rcall	.-2198   	; 0xfffffc78 <__eeprom_end+0xff7efc78>


char hex2c(char hex)
{

   if(hex<0xa)
     50e:	8a 30       	cpi	r24, 0x0A	; 10
     510:	10 f4       	brcc	.+4      	; 0x516 <print10+0x80>
      return '0'+hex;
     512:	80 5d       	subi	r24, 0xD0	; 208
     514:	01 c0       	rjmp	.+2      	; 0x518 <print10+0x82>
   else
      return 'a'+hex-0xa;
     516:	89 5a       	subi	r24, 0xA9	; 169
		   	
	 four[2]= hex2c( (n/100) );
	 n = n%100;
	
	 four[3]= hex2c( (n/10) );
	 four[4]= hex2c( (n%10) );;
     518:	80 93 d3 01 	sts	0x01D3, r24
	 four[5]= 0;
     51c:	10 92 d4 01 	sts	0x01D4, r1

     if(four[0] == '0')
     520:	80 91 cf 01 	lds	r24, 0x01CF
     524:	80 33       	cpi	r24, 0x30	; 48
     526:	19 f4       	brne	.+6      	; 0x52e <print10+0x98>
	    lcd_puts(four+1);
     528:	80 ed       	ldi	r24, 0xD0	; 208
     52a:	91 e0       	ldi	r25, 0x01	; 1
     52c:	02 c0       	rjmp	.+4      	; 0x532 <print10+0x9c>
	 else
	 	lcd_puts(four);
     52e:	8f ec       	ldi	r24, 0xCF	; 207
     530:	91 e0       	ldi	r25, 0x01	; 1
     532:	a4 df       	rcall	.-184    	; 0x47c <lcd_puts>
     534:	08 95       	ret

00000536 <lcd_cursor>:
  io_50ms();io_50ms();
}


void lcd_cursor(char x, char y)
{
     536:	98 2f       	mov	r25, r24
	send_cmd(x+(y?0xc0:0x80));  
     538:	66 23       	and	r22, r22
     53a:	11 f4       	brne	.+4      	; 0x540 <lcd_cursor+0xa>
     53c:	80 e8       	ldi	r24, 0x80	; 128
     53e:	01 c0       	rjmp	.+2      	; 0x542 <lcd_cursor+0xc>
     540:	80 ec       	ldi	r24, 0xC0	; 192
     542:	89 0f       	add	r24, r25
     544:	61 e0       	ldi	r22, 0x01	; 1
     546:	41 df       	rcall	.-382    	; 0x3ca <hd44870_send>
}
     548:	08 95       	ret

0000054a <lcd1602_init>:

#define send_cmd(data) hd44870_send(data,1)
#define send_data(data) hd44870_send(data,0)

void lcd1602_init(void)    
{
     54a:	0f 93       	push	r16
     54c:	1f 93       	push	r17
  io_init();
     54e:	6d de       	rcall	.-806    	; 0x22a <init_74hc595>

  send_cmd(0x33);
     550:	83 e3       	ldi	r24, 0x33	; 51
     552:	61 e0       	ldi	r22, 0x01	; 1
     554:	3a df       	rcall	.-396    	; 0x3ca <hd44870_send>
    milliseconds can be achieved.
 */
void
_delay_loop_2(uint16_t __count)
{
	__asm__ volatile (
     556:	00 e5       	ldi	r16, 0x50	; 80
     558:	13 ec       	ldi	r17, 0xC3	; 195
     55a:	c8 01       	movw	r24, r16
     55c:	01 97       	sbiw	r24, 0x01	; 1
     55e:	f1 f7       	brne	.-4      	; 0x55c <lcd1602_init+0x12>
  io_50ms();
  send_cmd(0x32);
     560:	82 e3       	ldi	r24, 0x32	; 50
     562:	61 e0       	ldi	r22, 0x01	; 1
     564:	32 df       	rcall	.-412    	; 0x3ca <hd44870_send>
     566:	c8 01       	movw	r24, r16
     568:	01 97       	sbiw	r24, 0x01	; 1
     56a:	f1 f7       	brne	.-4      	; 0x568 <lcd1602_init+0x1e>
  io_50ms();

  send_cmd(0x28); /* ４位数据线，５＊１０字体 */
     56c:	88 e2       	ldi	r24, 0x28	; 40
     56e:	61 e0       	ldi	r22, 0x01	; 1
     570:	2c df       	rcall	.-424    	; 0x3ca <hd44870_send>
     572:	c8 01       	movw	r24, r16
     574:	01 97       	sbiw	r24, 0x01	; 1
     576:	f1 f7       	brne	.-4      	; 0x574 <lcd1602_init+0x2a>
  io_50ms();
  
  send_cmd(0x0c); /*开显示，无光标， 0xf：开光标并闪烁*/   
     578:	8c e0       	ldi	r24, 0x0C	; 12
     57a:	61 e0       	ldi	r22, 0x01	; 1
     57c:	26 df       	rcall	.-436    	; 0x3ca <hd44870_send>
     57e:	c8 01       	movw	r24, r16
     580:	01 97       	sbiw	r24, 0x01	; 1
     582:	f1 f7       	brne	.-4      	; 0x580 <lcd1602_init+0x36>
  io_50ms();

  send_cmd(0x06);  /* 光标自动右移，整屏不移动 */
     584:	86 e0       	ldi	r24, 0x06	; 6
     586:	61 e0       	ldi	r22, 0x01	; 1
     588:	20 df       	rcall	.-448    	; 0x3ca <hd44870_send>
     58a:	c8 01       	movw	r24, r16
     58c:	01 97       	sbiw	r24, 0x01	; 1
     58e:	f1 f7       	brne	.-4      	; 0x58c <lcd1602_init+0x42>
  io_50ms();
  

  send_cmd(0x01);  /*清屏*/
     590:	81 e0       	ldi	r24, 0x01	; 1
     592:	61 e0       	ldi	r22, 0x01	; 1
     594:	1a df       	rcall	.-460    	; 0x3ca <hd44870_send>
     596:	c8 01       	movw	r24, r16
     598:	01 97       	sbiw	r24, 0x01	; 1
     59a:	f1 f7       	brne	.-4      	; 0x598 <lcd1602_init+0x4e>
  io_50ms();io_50ms();
}
     59c:	c8 01       	movw	r24, r16
     59e:	01 97       	sbiw	r24, 0x01	; 1
     5a0:	f1 f7       	brne	.-4      	; 0x59e <lcd1602_init+0x54>
     5a2:	1f 91       	pop	r17
     5a4:	0f 91       	pop	r16
     5a6:	08 95       	ret

000005a8 <adc_init>:
void adc_init()
{
	short adc;

	/// AVCC, AREF 加滤波电容      ADCL keep low 8bit        init for ch0  
	ADMUX = _bits8(0b01,REFS0,REFS1) |   _bits8(0,ADLAR,ADLAR) |  _bits8(0,MUX0,MUX3); 
     5a8:	80 e4       	ldi	r24, 0x40	; 64
     5aa:	87 b9       	out	0x07, r24	; 7
        /*must READ ADCH for compled ADC*/

	/*ADC status and control*/   
	         /*enable ADC*/	  /*start first ADC*/    /*no interrupt for now*/ /*4M/32, 125kHz*/
	ADCSRA = _bits8(1,ADEN,ADEN) | _bits8(1,ADSC,ADSC) |  _bits8(0, ADIE,ADIE)   | _bits8(0b101, ADPS0,ADPS2);
     5ac:	85 ec       	ldi	r24, 0xC5	; 197
     5ae:	86 b9       	out	0x06, r24	; 6
       /*wait for 25 ADC clock for first ADC completed*/
	while(!_test_bit(ADCSRA,ADIF));
     5b0:	34 9b       	sbis	0x06, 4	; 6
     5b2:	fe cf       	rjmp	.-4      	; 0x5b0 <adc_init+0x8>
	_set_bit(ADCSRA,ADIF); //clear IF bit
     5b4:	34 9a       	sbi	0x06, 4	; 6
  
        adc = ADCL;
     5b6:	84 b1       	in	r24, 0x04	; 4
	barrier();
	adc = ADCH;
     5b8:	85 b1       	in	r24, 0x05	; 5
}
     5ba:	08 95       	ret

000005bc <_adc>:
unsigned int _adc(unsigned char ch)
{
  unsigned int adc_l=0,adc=0;

  /*select channel*/
  _mov_bits8(ADMUX,ch,MUX0,MUX3,0,2); /*ADC0...ADC4*/
     5bc:	97 b1       	in	r25, 0x07	; 7
     5be:	87 70       	andi	r24, 0x07	; 7
     5c0:	90 7f       	andi	r25, 0xF0	; 240
     5c2:	89 2b       	or	r24, r25
     5c4:	87 b9       	out	0x07, r24	; 7

  /*start ADC*/
  _set_bit(ADCSRA,ADSC);
     5c6:	36 9a       	sbi	0x06, 6	; 6

  /*wait completed(ADIF active)*/
   while(!_test_bit(ADCSRA,ADIF));
     5c8:	34 9b       	sbis	0x06, 4	; 6
     5ca:	fe cf       	rjmp	.-4      	; 0x5c8 <_adc+0xc>

  /*read result */
  /*must READ ADCH for compled ADC*/
   adc_l = ADCL;
     5cc:	24 b1       	in	r18, 0x04	; 4
   /* GCC will swich ADCL read fist,so tell it don't do that*/
   barrier();
   adc =   ADCH ;
     5ce:	45 b1       	in	r20, 0x05	; 5
   adc = (adc<<8)|adc_l;
     5d0:	94 2f       	mov	r25, r20
     5d2:	80 e0       	ldi	r24, 0x00	; 0

   _set_bit(ADCSRA,ADIF); //clear IF bit
     5d4:	34 9a       	sbi	0x06, 4	; 6
     5d6:	30 e0       	ldi	r19, 0x00	; 0
     5d8:	28 2b       	or	r18, r24
     5da:	39 2b       	or	r19, r25
   return adc;
}
     5dc:	c9 01       	movw	r24, r18
     5de:	08 95       	ret

000005e0 <__vector_9>:

#define LED_PORT PORTD


ISR(TIMER0_OVF_vect)
{
     5e0:	1f 92       	push	r1
     5e2:	0f 92       	push	r0
     5e4:	0f b6       	in	r0, 0x3f	; 63
     5e6:	0f 92       	push	r0
     5e8:	11 24       	eor	r1, r1
     5ea:	2f 93       	push	r18
     5ec:	3f 93       	push	r19
     5ee:	4f 93       	push	r20
     5f0:	5f 93       	push	r21
     5f2:	8f 93       	push	r24
     5f4:	9f 93       	push	r25
     5f6:	af 93       	push	r26
     5f8:	bf 93       	push	r27


   jiffers++;
     5fa:	80 91 d5 01 	lds	r24, 0x01D5
     5fe:	90 91 d6 01 	lds	r25, 0x01D6
     602:	a0 91 d7 01 	lds	r26, 0x01D7
     606:	b0 91 d8 01 	lds	r27, 0x01D8
     60a:	01 96       	adiw	r24, 0x01	; 1
     60c:	a1 1d       	adc	r26, r1
     60e:	b1 1d       	adc	r27, r1
     610:	80 93 d5 01 	sts	0x01D5, r24
     614:	90 93 d6 01 	sts	0x01D6, r25
     618:	a0 93 d7 01 	sts	0x01D7, r26
     61c:	b0 93 d8 01 	sts	0x01D8, r27
   static unsigned long mark= 0;
   if(timeafter(jiffers,mark+ HZ/8 )){ //4times per second
     620:	20 91 d5 01 	lds	r18, 0x01D5
     624:	30 91 d6 01 	lds	r19, 0x01D6
     628:	40 91 d7 01 	lds	r20, 0x01D7
     62c:	50 91 d8 01 	lds	r21, 0x01D8
     630:	80 91 d9 01 	lds	r24, 0x01D9
     634:	90 91 da 01 	lds	r25, 0x01DA
     638:	a0 91 db 01 	lds	r26, 0x01DB
     63c:	b0 91 dc 01 	lds	r27, 0x01DC
     640:	83 58       	subi	r24, 0x83	; 131
     642:	9f 4f       	sbci	r25, 0xFF	; 255
     644:	af 4f       	sbci	r26, 0xFF	; 255
     646:	bf 4f       	sbci	r27, 0xFF	; 255
     648:	82 1b       	sub	r24, r18
     64a:	93 0b       	sbc	r25, r19
     64c:	a4 0b       	sbc	r26, r20
     64e:	b5 0b       	sbc	r27, r21
     650:	b7 ff       	sbrs	r27, 7
     652:	14 c0       	rjmp	.+40     	; 0x67c <__vector_9+0x9c>
      _toggle_bits(LED_PORT,0b11); //hart beats
     654:	82 b3       	in	r24, 0x12	; 18
     656:	93 e0       	ldi	r25, 0x03	; 3
     658:	89 27       	eor	r24, r25
     65a:	82 bb       	out	0x12, r24	; 18
	  mark = jiffers;
     65c:	80 91 d5 01 	lds	r24, 0x01D5
     660:	90 91 d6 01 	lds	r25, 0x01D6
     664:	a0 91 d7 01 	lds	r26, 0x01D7
     668:	b0 91 d8 01 	lds	r27, 0x01D8
     66c:	80 93 d9 01 	sts	0x01D9, r24
     670:	90 93 da 01 	sts	0x01DA, r25
     674:	a0 93 db 01 	sts	0x01DB, r26
     678:	b0 93 dc 01 	sts	0x01DC, r27
   }

   TCNT0  = TIMER0_TCN;
     67c:	81 ec       	ldi	r24, 0xC1	; 193
     67e:	82 bf       	out	0x32, r24	; 50
   return;
} 
     680:	bf 91       	pop	r27
     682:	af 91       	pop	r26
     684:	9f 91       	pop	r25
     686:	8f 91       	pop	r24
     688:	5f 91       	pop	r21
     68a:	4f 91       	pop	r20
     68c:	3f 91       	pop	r19
     68e:	2f 91       	pop	r18
     690:	0f 90       	pop	r0
     692:	0f be       	out	0x3f, r0	; 63
     694:	0f 90       	pop	r0
     696:	1f 90       	pop	r1
     698:	18 95       	reti

0000069a <timer0_init>:


void timer0_init()
{

  TCCR0  =   (_bits8(0b11,CS00,CS02)) ;
     69a:	83 e0       	ldi	r24, 0x03	; 3
     69c:	83 bf       	out	0x33, r24	; 51
  TCNT0  = TIMER0_TCN; //1ms per interrupt
     69e:	81 ec       	ldi	r24, 0xC1	; 193
     6a0:	82 bf       	out	0x32, r24	; 50
  //TIMSK |= _bits8(1,TOIE0,TOIE0); //enable interrupt;
  
  //TIFR TOV0, clear by interrupt
 // SFIOR |=  PSR10;

}
     6a2:	08 95       	ret

000006a4 <enable_timer0>:


void enable_timer0()
{
   TIMSK |= _bits8(1,TOIE0,TOIE0);;// enable interrupt;
     6a4:	89 b7       	in	r24, 0x39	; 57
     6a6:	81 60       	ori	r24, 0x01	; 1
     6a8:	89 bf       	out	0x39, r24	; 57

}
     6aa:	08 95       	ret

000006ac <disable_timer0>:
void disable_timer0()
{
   TIMSK  &= ~_bits8(1,TOIE0,TOIE0);// enable interrupt;
     6ac:	89 b7       	in	r24, 0x39	; 57
     6ae:	8e 7f       	andi	r24, 0xFE	; 254
     6b0:	89 bf       	out	0x39, r24	; 57
}
     6b2:	08 95       	ret

000006b4 <in_chaging>:
	  pwm_setduty(0);
}
void in_chaging(i_charger *ic)
{
    return;
}
     6b4:	08 95       	ret

000006b6 <init_ic>:
   lcd_puts(e);
   lcd_putc(hex2c(n));
}

void init_ic(i_charger *ic)
{
     6b6:	fc 01       	movw	r30, r24
      ic->i_stage = DETECT_CELL;
     6b8:	10 82       	st	Z, r1
	  ic->charging_mode = NOT_IN;
     6ba:	11 82       	std	Z+1, r1	; 0x01
  	  ic->cell_type = Unknown;
     6bc:	12 82       	std	Z+2, r1	; 0x02
	  ic->cell_pack = 0;  //start pack
     6be:	13 82       	std	Z+3, r1	; 0x03
      
	  ic->current = ic->voltage = 0;
     6c0:	80 e0       	ldi	r24, 0x00	; 0
     6c2:	90 e0       	ldi	r25, 0x00	; 0
     6c4:	a0 e0       	ldi	r26, 0x00	; 0
     6c6:	b0 e0       	ldi	r27, 0x00	; 0
     6c8:	80 87       	std	Z+8, r24	; 0x08
     6ca:	91 87       	std	Z+9, r25	; 0x09
     6cc:	a2 87       	std	Z+10, r26	; 0x0a
     6ce:	b3 87       	std	Z+11, r27	; 0x0b
     6d0:	84 83       	std	Z+4, r24	; 0x04
     6d2:	95 83       	std	Z+5, r25	; 0x05
     6d4:	a6 83       	std	Z+6, r26	; 0x06
     6d6:	b7 83       	std	Z+7, r27	; 0x07
	  ic->top_voltage = 0;
     6d8:	84 87       	std	Z+12, r24	; 0x0c
     6da:	95 87       	std	Z+13, r25	; 0x0d
     6dc:	a6 87       	std	Z+14, r26	; 0x0e
     6de:	b7 87       	std	Z+15, r27	; 0x0f
	  ic->delta_times = 0;
     6e0:	10 8a       	std	Z+16, r1	; 0x10

	  ic->charging_Amp = 0;
     6e2:	81 8b       	std	Z+17, r24	; 0x11
     6e4:	92 8b       	std	Z+18, r25	; 0x12
     6e6:	a3 8b       	std	Z+19, r26	; 0x13
     6e8:	b4 8b       	std	Z+20, r27	; 0x14
	  ic->ir = 0;
     6ea:	85 8b       	std	Z+21, r24	; 0x15
     6ec:	96 8b       	std	Z+22, r25	; 0x16
     6ee:	a7 8b       	std	Z+23, r26	; 0x17
     6f0:	b0 8f       	std	Z+24, r27	; 0x18
	  ic->abs_voltage = 0;
     6f2:	81 8f       	std	Z+25, r24	; 0x19
     6f4:	92 8f       	std	Z+26, r25	; 0x1a
     6f6:	a3 8f       	std	Z+27, r26	; 0x1b
     6f8:	b4 8f       	std	Z+28, r27	; 0x1c
	  /*stop pwm*/
	  pwm_setduty(0);
     6fa:	80 e0       	ldi	r24, 0x00	; 0
     6fc:	47 dd       	rcall	.-1394   	; 0x18c <pwm_setduty>
}
     6fe:	08 95       	ret

00000700 <info>:
      
   }
      
}
void info(char *e)
{
     700:	0f 93       	push	r16
     702:	1f 93       	push	r17
     704:	8c 01       	movw	r16, r24
   lcd_cursor(8,0);
     706:	88 e0       	ldi	r24, 0x08	; 8
     708:	90 e0       	ldi	r25, 0x00	; 0
     70a:	60 e0       	ldi	r22, 0x00	; 0
     70c:	70 e0       	ldi	r23, 0x00	; 0
     70e:	13 df       	rcall	.-474    	; 0x536 <lcd_cursor>
   lcd_puts(e);
     710:	c8 01       	movw	r24, r16
     712:	b4 de       	rcall	.-664    	; 0x47c <lcd_puts>
}
     714:	1f 91       	pop	r17
     716:	0f 91       	pop	r16
     718:	08 95       	ret

0000071a <detect_type>:
#define NICD_STOP_V     	1.42   /* 1.42V */
#define NICD_FAST_V 		1.00   /* 1.0V  */
#define NICD_MAX_V     	    1.50   /* 1.50V */
#define NICD_ARRAY_MIN_V	2.00   /*       */
void detect_type(i_charger *ic)
{
     71a:	ef 92       	push	r14
     71c:	ff 92       	push	r15
     71e:	0f 93       	push	r16
     720:	1f 93       	push	r17
     722:	cf 93       	push	r28
     724:	df 93       	push	r29
     726:	ec 01       	movw	r28, r24
   info(" type?  ");
     728:	87 e6       	ldi	r24, 0x67	; 103
     72a:	90 e0       	ldi	r25, 0x00	; 0
     72c:	e9 df       	rcall	.-46     	; 0x700 <info>
	   
  

   if( ic->voltage < 1.0){ //very pre charge
     72e:	e8 84       	ldd	r14, Y+8	; 0x08
     730:	f9 84       	ldd	r15, Y+9	; 0x09
     732:	0a 85       	ldd	r16, Y+10	; 0x0a
     734:	1b 85       	ldd	r17, Y+11	; 0x0b
     736:	c8 01       	movw	r24, r16
     738:	b7 01       	movw	r22, r14
     73a:	20 e0       	ldi	r18, 0x00	; 0
     73c:	30 e0       	ldi	r19, 0x00	; 0
     73e:	40 e8       	ldi	r20, 0x80	; 128
     740:	5f e3       	ldi	r21, 0x3F	; 63
     742:	a4 d7       	rcall	.+3912   	; 0x168c <__ltsf2>
     744:	88 23       	and	r24, r24
     746:	1c f4       	brge	.+6      	; 0x74e <detect_type+0x34>
      pwm_setduty(1);  
     748:	81 e0       	ldi	r24, 0x01	; 1
     74a:	20 dd       	rcall	.-1472   	; 0x18c <pwm_setduty>
     74c:	20 c0       	rjmp	.+64     	; 0x78e <detect_type+0x74>
	  return;
   }
   if( ic->voltage < NICD_MAX_V){ 
     74e:	c8 01       	movw	r24, r16
     750:	b7 01       	movw	r22, r14
     752:	20 e0       	ldi	r18, 0x00	; 0
     754:	30 e0       	ldi	r19, 0x00	; 0
     756:	40 ec       	ldi	r20, 0xC0	; 192
     758:	5f e3       	ldi	r21, 0x3F	; 63
     75a:	98 d7       	rcall	.+3888   	; 0x168c <__ltsf2>
     75c:	88 23       	and	r24, r24
     75e:	4c f4       	brge	.+18     	; 0x772 <detect_type+0x58>
      ic->cell_type =  NiCd;
     760:	81 e0       	ldi	r24, 0x01	; 1
     762:	8a 83       	std	Y+2, r24	; 0x02
	  ic->cell_pack = 1;  //single NiCd
     764:	8b 83       	std	Y+3, r24	; 0x03
      ic->i_stage = CHARCHING;
     766:	83 e0       	ldi	r24, 0x03	; 3
     768:	88 83       	st	Y, r24
	  info("Single   ");
     76a:	80 e7       	ldi	r24, 0x70	; 112
     76c:	90 e0       	ldi	r25, 0x00	; 0
     76e:	c8 df       	rcall	.-112    	; 0x700 <info>
     770:	0e c0       	rjmp	.+28     	; 0x78e <detect_type+0x74>
	  return;
   }

   if( ic->voltage >= NICD_ARRAY_MIN_V  ){
     772:	c8 01       	movw	r24, r16
     774:	b7 01       	movw	r22, r14
     776:	20 e0       	ldi	r18, 0x00	; 0
     778:	30 e0       	ldi	r19, 0x00	; 0
     77a:	40 e0       	ldi	r20, 0x00	; 0
     77c:	50 e4       	ldi	r21, 0x40	; 64
     77e:	5b d7       	rcall	.+3766   	; 0x1636 <__gesf2>
     780:	88 23       	and	r24, r24
     782:	2c f0       	brlt	.+10     	; 0x78e <detect_type+0x74>
	  ic->cell_type = CELL_ARRAY;
     784:	83 e0       	ldi	r24, 0x03	; 3
     786:	8a 83       	std	Y+2, r24	; 0x02
	  ic->cell_pack = 2;  //start pack
     788:	82 e0       	ldi	r24, 0x02	; 2
     78a:	8b 83       	std	Y+3, r24	; 0x03
	  ic->i_stage = DETECT_ARRAY;
     78c:	88 83       	st	Y, r24
	  return;

   }
 	   
}
     78e:	df 91       	pop	r29
     790:	cf 91       	pop	r28
     792:	1f 91       	pop	r17
     794:	0f 91       	pop	r16
     796:	ff 90       	pop	r15
     798:	ef 90       	pop	r14
     79a:	08 95       	ret

0000079c <ic_update_lcd>:

}


void ic_update_lcd(i_charger *ic)
{
     79c:	fc 01       	movw	r30, r24
   //first line of 1602 given to charger...


   if(ic->i_stage == STOP){
     79e:	80 81       	ld	r24, Z
     7a0:	84 30       	cpi	r24, 0x04	; 4
     7a2:	71 f0       	breq	.+28     	; 0x7c0 <ic_update_lcd+0x24>
   
   
   }else{
      lcd_cursor(0,0);
     7a4:	80 e0       	ldi	r24, 0x00	; 0
     7a6:	90 e0       	ldi	r25, 0x00	; 0
     7a8:	60 e0       	ldi	r22, 0x00	; 0
     7aa:	70 e0       	ldi	r23, 0x00	; 0
     7ac:	c4 de       	rcall	.-632    	; 0x536 <lcd_cursor>
      lcd_puts("PWM");
     7ae:	8a e7       	ldi	r24, 0x7A	; 122
     7b0:	90 e0       	ldi	r25, 0x00	; 0
     7b2:	64 de       	rcall	.-824    	; 0x47c <lcd_puts>
      print10(pwm_getduty());
     7b4:	ef dc       	rcall	.-1570   	; 0x194 <pwm_getduty>
     7b6:	90 e0       	ldi	r25, 0x00	; 0
     7b8:	6e de       	rcall	.-804    	; 0x496 <print10>
      lcd_puts(" ");
     7ba:	8e e7       	ldi	r24, 0x7E	; 126
     7bc:	90 e0       	ldi	r25, 0x00	; 0
     7be:	5e de       	rcall	.-836    	; 0x47c <lcd_puts>
     7c0:	08 95       	ret

000007c2 <infon>:
{
   lcd_cursor(8,0);
   lcd_puts(e);
}
void infon(char *e,char n)
{
     7c2:	ff 92       	push	r15
     7c4:	0f 93       	push	r16
     7c6:	1f 93       	push	r17
     7c8:	8c 01       	movw	r16, r24
     7ca:	f6 2e       	mov	r15, r22
   lcd_cursor(8,0);
     7cc:	88 e0       	ldi	r24, 0x08	; 8
     7ce:	90 e0       	ldi	r25, 0x00	; 0
     7d0:	60 e0       	ldi	r22, 0x00	; 0
     7d2:	70 e0       	ldi	r23, 0x00	; 0
     7d4:	b0 de       	rcall	.-672    	; 0x536 <lcd_cursor>
   lcd_puts(e);
     7d6:	c8 01       	movw	r24, r16
     7d8:	51 de       	rcall	.-862    	; 0x47c <lcd_puts>
   lcd_putc(hex2c(n));
     7da:	8f 2d       	mov	r24, r15
     7dc:	90 e0       	ldi	r25, 0x00	; 0
     7de:	9c dd       	rcall	.-1224   	; 0x318 <hex2c>
     7e0:	4a de       	rcall	.-876    	; 0x476 <lcd_putc>
}
     7e2:	1f 91       	pop	r17
     7e4:	0f 91       	pop	r16
     7e6:	ff 90       	pop	r15
     7e8:	08 95       	ret

000007ea <detect_array>:
  4-array                               4            5.68
  7-array(V9-stack)                                            7             9.94        
 
*/
void detect_array(i_charger *ic)
{
     7ea:	ef 92       	push	r14
     7ec:	ff 92       	push	r15
     7ee:	0f 93       	push	r16
     7f0:	1f 93       	push	r17
     7f2:	cf 93       	push	r28
     7f4:	df 93       	push	r29
     7f6:	ec 01       	movw	r28, r24
   info(" array? ");
     7f8:	80 e8       	ldi	r24, 0x80	; 128
     7fa:	90 e0       	ldi	r25, 0x00	; 0
     7fc:	81 df       	rcall	.-254    	; 0x700 <info>
   pwm_setduty(0);
     7fe:	80 e0       	ldi	r24, 0x00	; 0
     800:	c5 dc       	rcall	.-1654   	; 0x18c <pwm_setduty>
 
   if( ic->voltage >= 7.00  ){
     802:	e8 84       	ldd	r14, Y+8	; 0x08
     804:	f9 84       	ldd	r15, Y+9	; 0x09
     806:	0a 85       	ldd	r16, Y+10	; 0x0a
     808:	1b 85       	ldd	r17, Y+11	; 0x0b
     80a:	c8 01       	movw	r24, r16
     80c:	b7 01       	movw	r22, r14
     80e:	20 e0       	ldi	r18, 0x00	; 0
     810:	30 e0       	ldi	r19, 0x00	; 0
     812:	40 ee       	ldi	r20, 0xE0	; 224
     814:	50 e4       	ldi	r21, 0x40	; 64
     816:	0f d7       	rcall	.+3614   	; 0x1636 <__gesf2>
     818:	88 23       	and	r24, r24
     81a:	14 f0       	brlt	.+4      	; 0x820 <detect_array+0x36>
		ic->cell_pack = 7; 
     81c:	87 e0       	ldi	r24, 0x07	; 7
     81e:	0a c0       	rjmp	.+20     	; 0x834 <detect_array+0x4a>
		goto out;
   }
   	   
   if( ic->voltage >= 4.00 ){
     820:	c8 01       	movw	r24, r16
     822:	b7 01       	movw	r22, r14
     824:	20 e0       	ldi	r18, 0x00	; 0
     826:	30 e0       	ldi	r19, 0x00	; 0
     828:	40 e8       	ldi	r20, 0x80	; 128
     82a:	50 e4       	ldi	r21, 0x40	; 64
     82c:	04 d7       	rcall	.+3592   	; 0x1636 <__gesf2>
     82e:	88 23       	and	r24, r24
     830:	1c f0       	brlt	.+6      	; 0x838 <detect_array+0x4e>
	    ic->cell_pack = 4;  
     832:	84 e0       	ldi	r24, 0x04	; 4
     834:	8b 83       	std	Y+3, r24	; 0x03
     836:	1c c0       	rjmp	.+56     	; 0x870 <detect_array+0x86>
	  	  goto out;;
   }	   

   if( ic->voltage >= 2.00 ){
     838:	c8 01       	movw	r24, r16
     83a:	b7 01       	movw	r22, r14
     83c:	20 e0       	ldi	r18, 0x00	; 0
     83e:	30 e0       	ldi	r19, 0x00	; 0
     840:	40 e0       	ldi	r20, 0x00	; 0
     842:	50 e4       	ldi	r21, 0x40	; 64
     844:	f8 d6       	rcall	.+3568   	; 0x1636 <__gesf2>
     846:	88 23       	and	r24, r24
     848:	14 f0       	brlt	.+4      	; 0x84e <detect_array+0x64>
	  ic->cell_pack = 2;  
     84a:	82 e0       	ldi	r24, 0x02	; 2
     84c:	f3 cf       	rjmp	.-26     	; 0x834 <detect_array+0x4a>
	  	 goto out; 

   }	

   /* <2.0, Err, 判定type的时候能保证电压>2.0 */
   if( ic->voltage < 2.00){
     84e:	c8 01       	movw	r24, r16
     850:	b7 01       	movw	r22, r14
     852:	20 e0       	ldi	r18, 0x00	; 0
     854:	30 e0       	ldi	r19, 0x00	; 0
     856:	40 e0       	ldi	r20, 0x00	; 0
     858:	50 e4       	ldi	r21, 0x40	; 64
     85a:	18 d7       	rcall	.+3632   	; 0x168c <__ltsf2>
     85c:	88 23       	and	r24, r24
     85e:	44 f4       	brge	.+16     	; 0x870 <detect_array+0x86>
      ic->cell_type = Unknown;
     860:	1a 82       	std	Y+2, r1	; 0x02
      ic->cell_pack = 0;  
     862:	1b 82       	std	Y+3, r1	; 0x03
      ic->i_stage = STOP;
     864:	84 e0       	ldi	r24, 0x04	; 4
     866:	88 83       	st	Y, r24
	  info("A-Err   ");
     868:	89 e8       	ldi	r24, 0x89	; 137
     86a:	90 e0       	ldi	r25, 0x00	; 0
     86c:	49 df       	rcall	.-366    	; 0x700 <info>
     86e:	06 c0       	rjmp	.+12     	; 0x87c <detect_array+0x92>
	  return;
   }
out:
   ic->i_stage = CHARCHING;
     870:	83 e0       	ldi	r24, 0x03	; 3
     872:	88 83       	st	Y, r24
   infon("Pack  ",ic->cell_pack);
     874:	82 e9       	ldi	r24, 0x92	; 146
     876:	90 e0       	ldi	r25, 0x00	; 0
     878:	6b 81       	ldd	r22, Y+3	; 0x03
     87a:	a3 df       	rcall	.-186    	; 0x7c2 <infon>
   return;
}
     87c:	df 91       	pop	r29
     87e:	cf 91       	pop	r28
     880:	1f 91       	pop	r17
     882:	0f 91       	pop	r16
     884:	ff 90       	pop	r15
     886:	ef 90       	pop	r14
     888:	08 95       	ret

0000088a <lowpass_adc>:
#define min(a,b)  ((a)<(b)?(a):(b))
#define max(a,b)  ((a)>(b)?(a):(b))

#define FILTER_PASS  10
float lowpass_adc(char ch)
{
     88a:	2f 92       	push	r2
     88c:	3f 92       	push	r3
     88e:	4f 92       	push	r4
     890:	5f 92       	push	r5
     892:	6f 92       	push	r6
     894:	7f 92       	push	r7
     896:	8f 92       	push	r8
     898:	9f 92       	push	r9
     89a:	af 92       	push	r10
     89c:	bf 92       	push	r11
     89e:	cf 92       	push	r12
     8a0:	df 92       	push	r13
     8a2:	ef 92       	push	r14
     8a4:	ff 92       	push	r15
     8a6:	0f 93       	push	r16
     8a8:	1f 93       	push	r17
     8aa:	df 93       	push	r29
     8ac:	cf 93       	push	r28
     8ae:	cd b7       	in	r28, 0x3d	; 61
     8b0:	de b7       	in	r29, 0x3e	; 62
     8b2:	ac 97       	sbiw	r28, 0x2c	; 44
     8b4:	0f b6       	in	r0, 0x3f	; 63
     8b6:	f8 94       	cli
     8b8:	de bf       	out	0x3e, r29	; 62
     8ba:	0f be       	out	0x3f, r0	; 63
     8bc:	cd bf       	out	0x3d, r28	; 61
     8be:	89 a7       	std	Y+41, r24	; 0x29
   float adc[FILTER_PASS];
   float low=_adc(ch);
     8c0:	90 e0       	ldi	r25, 0x00	; 0
     8c2:	7c de       	rcall	.-776    	; 0x5bc <_adc>
     8c4:	aa 27       	eor	r26, r26
     8c6:	97 fd       	sbrc	r25, 7
     8c8:	a0 95       	com	r26
     8ca:	ba 2f       	mov	r27, r26
     8cc:	bc 01       	movw	r22, r24
     8ce:	cd 01       	movw	r24, r26
     8d0:	33 d7       	rcall	.+3686   	; 0x1738 <__floatsisf>
     8d2:	5b 01       	movw	r10, r22
     8d4:	6c 01       	movw	r12, r24
     8d6:	2e 01       	movw	r4, r28
     8d8:	08 94       	sec
     8da:	41 1c       	adc	r4, r1
     8dc:	51 1c       	adc	r5, r1
     8de:	dc 01       	movw	r26, r24
     8e0:	cb 01       	movw	r24, r22
     8e2:	8a a7       	std	Y+42, r24	; 0x2a
     8e4:	9b a7       	std	Y+43, r25	; 0x2b
     8e6:	ac a7       	std	Y+44, r26	; 0x2c
     8e8:	2b 2e       	mov	r2, r27
     8ea:	42 01       	movw	r8, r4
     8ec:	66 24       	eor	r6, r6
     8ee:	33 24       	eor	r3, r3
     8f0:	77 24       	eor	r7, r7
   float top = low;
   float avg;
   unsigned char topi=0,lowi=0,i;

   for(i=0; i<FILTER_PASS; i++){
      adc[i] =  _adc(ch);
     8f2:	89 a5       	ldd	r24, Y+41	; 0x29
     8f4:	90 e0       	ldi	r25, 0x00	; 0
     8f6:	62 de       	rcall	.-828    	; 0x5bc <_adc>
     8f8:	aa 27       	eor	r26, r26
     8fa:	97 fd       	sbrc	r25, 7
     8fc:	a0 95       	com	r26
     8fe:	ba 2f       	mov	r27, r26
     900:	bc 01       	movw	r22, r24
     902:	cd 01       	movw	r24, r26
     904:	19 d7       	rcall	.+3634   	; 0x1738 <__floatsisf>
     906:	7b 01       	movw	r14, r22
     908:	8c 01       	movw	r16, r24
     90a:	f4 01       	movw	r30, r8
     90c:	60 83       	st	Z, r22
     90e:	71 83       	std	Z+1, r23	; 0x01
     910:	82 83       	std	Z+2, r24	; 0x02
     912:	93 83       	std	Z+3, r25	; 0x03
      if(adc[i] > top){
     914:	2a a5       	ldd	r18, Y+42	; 0x2a
     916:	3b a5       	ldd	r19, Y+43	; 0x2b
     918:	4c a5       	ldd	r20, Y+44	; 0x2c
     91a:	52 2d       	mov	r21, r2
     91c:	61 d6       	rcall	.+3266   	; 0x15e0 <__gtsf2>
     91e:	18 16       	cp	r1, r24
     920:	3c f4       	brge	.+14     	; 0x930 <lowpass_adc+0xa6>
     922:	d8 01       	movw	r26, r16
     924:	c7 01       	movw	r24, r14
     926:	ea a6       	std	Y+42, r14	; 0x2a
     928:	9b a7       	std	Y+43, r25	; 0x2b
     92a:	ac a7       	std	Y+44, r26	; 0x2c
     92c:	2b 2e       	mov	r2, r27
     92e:	67 2c       	mov	r6, r7
	     topi=i;
		 top = adc[i];
	  }   
      if(adc[i] <low ){
     930:	c8 01       	movw	r24, r16
     932:	b7 01       	movw	r22, r14
     934:	a6 01       	movw	r20, r12
     936:	95 01       	movw	r18, r10
     938:	a9 d6       	rcall	.+3410   	; 0x168c <__ltsf2>
     93a:	88 23       	and	r24, r24
     93c:	1c f4       	brge	.+6      	; 0x944 <lowpass_adc+0xba>
     93e:	57 01       	movw	r10, r14
     940:	68 01       	movw	r12, r16
     942:	37 2c       	mov	r3, r7
   float low=_adc(ch);
   float top = low;
   float avg;
   unsigned char topi=0,lowi=0,i;

   for(i=0; i<FILTER_PASS; i++){
     944:	73 94       	inc	r7
     946:	84 e0       	ldi	r24, 0x04	; 4
     948:	90 e0       	ldi	r25, 0x00	; 0
     94a:	88 0e       	add	r8, r24
     94c:	99 1e       	adc	r9, r25
     94e:	9a e0       	ldi	r25, 0x0A	; 10
     950:	79 16       	cp	r7, r25
     952:	79 f6       	brne	.-98     	; 0x8f2 <lowpass_adc+0x68>
      if(adc[i] <low ){
	     lowi=i;
		 low = adc[i];
	  }   
   }
   adc[topi] = 0;
     954:	e6 2d       	mov	r30, r6
     956:	f0 e0       	ldi	r31, 0x00	; 0
     958:	ee 0f       	add	r30, r30
     95a:	ff 1f       	adc	r31, r31
     95c:	ee 0f       	add	r30, r30
     95e:	ff 1f       	adc	r31, r31
     960:	de 01       	movw	r26, r28
     962:	11 96       	adiw	r26, 0x01	; 1
     964:	ea 0f       	add	r30, r26
     966:	fb 1f       	adc	r31, r27
     968:	20 e0       	ldi	r18, 0x00	; 0
     96a:	30 e0       	ldi	r19, 0x00	; 0
     96c:	40 e0       	ldi	r20, 0x00	; 0
     96e:	50 e0       	ldi	r21, 0x00	; 0
     970:	20 83       	st	Z, r18
     972:	31 83       	std	Z+1, r19	; 0x01
     974:	42 83       	std	Z+2, r20	; 0x02
     976:	53 83       	std	Z+3, r21	; 0x03
   adc[lowi] = 0;
     978:	83 2d       	mov	r24, r3
     97a:	90 e0       	ldi	r25, 0x00	; 0
     97c:	88 0f       	add	r24, r24
     97e:	99 1f       	adc	r25, r25
     980:	88 0f       	add	r24, r24
     982:	99 1f       	adc	r25, r25
     984:	a8 0f       	add	r26, r24
     986:	b9 1f       	adc	r27, r25
     988:	2d 93       	st	X+, r18
     98a:	3d 93       	st	X+, r19
     98c:	4d 93       	st	X+, r20
     98e:	5c 93       	st	X, r21
     990:	13 97       	sbiw	r26, 0x03	; 3
     992:	ca 01       	movw	r24, r20
     994:	b9 01       	movw	r22, r18

   low=0;
   for(i=0; i<FILTER_PASS; i++){
     996:	8e 01       	movw	r16, r28
     998:	07 5d       	subi	r16, 0xD7	; 215
     99a:	1f 4f       	sbci	r17, 0xFF	; 255
      low+=adc[i];
     99c:	f2 01       	movw	r30, r4
     99e:	21 91       	ld	r18, Z+
     9a0:	31 91       	ld	r19, Z+
     9a2:	41 91       	ld	r20, Z+
     9a4:	51 91       	ld	r21, Z+
     9a6:	2f 01       	movw	r4, r30
     9a8:	58 d4       	rcall	.+2224   	; 0x125a <__addsf3>
   }
   adc[topi] = 0;
   adc[lowi] = 0;

   low=0;
   for(i=0; i<FILTER_PASS; i++){
     9aa:	40 16       	cp	r4, r16
     9ac:	51 06       	cpc	r5, r17
     9ae:	b1 f7       	brne	.-20     	; 0x99c <lowpass_adc+0x112>
      low+=adc[i];
   }

   avg = low/(FILTER_PASS-2);
   if(topi==lowi)
     9b0:	63 14       	cp	r6, r3
     9b2:	31 f0       	breq	.+12     	; 0x9c0 <lowpass_adc+0x136>
   low=0;
   for(i=0; i<FILTER_PASS; i++){
      low+=adc[i];
   }

   avg = low/(FILTER_PASS-2);
     9b4:	20 e0       	ldi	r18, 0x00	; 0
     9b6:	30 e0       	ldi	r19, 0x00	; 0
     9b8:	40 e0       	ldi	r20, 0x00	; 0
     9ba:	5e e3       	ldi	r21, 0x3E	; 62
     9bc:	75 d4       	rcall	.+2282   	; 0x12a8 <__mulsf3>
     9be:	05 c0       	rjmp	.+10     	; 0x9ca <lowpass_adc+0x140>
   if(topi==lowi)
       avg=low/(FILTER_PASS-1);
     9c0:	20 e0       	ldi	r18, 0x00	; 0
     9c2:	30 e0       	ldi	r19, 0x00	; 0
     9c4:	40 e1       	ldi	r20, 0x10	; 16
     9c6:	51 e4       	ldi	r21, 0x41	; 65
     9c8:	64 d5       	rcall	.+2760   	; 0x1492 <__divsf3>
     9ca:	e6 2f       	mov	r30, r22

   return avg;
}
     9cc:	2e 2f       	mov	r18, r30
     9ce:	37 2f       	mov	r19, r23
     9d0:	48 2f       	mov	r20, r24
     9d2:	59 2f       	mov	r21, r25
     9d4:	b9 01       	movw	r22, r18
     9d6:	ca 01       	movw	r24, r20
     9d8:	ac 96       	adiw	r28, 0x2c	; 44
     9da:	0f b6       	in	r0, 0x3f	; 63
     9dc:	f8 94       	cli
     9de:	de bf       	out	0x3e, r29	; 62
     9e0:	0f be       	out	0x3f, r0	; 63
     9e2:	cd bf       	out	0x3d, r28	; 61
     9e4:	cf 91       	pop	r28
     9e6:	df 91       	pop	r29
     9e8:	1f 91       	pop	r17
     9ea:	0f 91       	pop	r16
     9ec:	ff 90       	pop	r15
     9ee:	ef 90       	pop	r14
     9f0:	df 90       	pop	r13
     9f2:	cf 90       	pop	r12
     9f4:	bf 90       	pop	r11
     9f6:	af 90       	pop	r10
     9f8:	9f 90       	pop	r9
     9fa:	8f 90       	pop	r8
     9fc:	7f 90       	pop	r7
     9fe:	6f 90       	pop	r6
     a00:	5f 90       	pop	r5
     a02:	4f 90       	pop	r4
     a04:	3f 90       	pop	r3
     a06:	2f 90       	pop	r2
     a08:	08 95       	ret

00000a0a <adc_A>:
{

	float tmp=0.0;

 // sprintf(str,"%04imA",_adc(2));
    float adc= lowpass_adc(2);
     a0a:	82 e0       	ldi	r24, 0x02	; 2
     a0c:	3e df       	rcall	.-388    	; 0x88a <lowpass_adc>
  
   	tmp= ((float)adc/1023)*refV;
     a0e:	20 e0       	ldi	r18, 0x00	; 0
     a10:	30 ec       	ldi	r19, 0xC0	; 192
     a12:	4f e7       	ldi	r20, 0x7F	; 127
     a14:	54 e4       	ldi	r21, 0x44	; 68
     a16:	3d d5       	rcall	.+2682   	; 0x1492 <__divsf3>
     a18:	23 e3       	ldi	r18, 0x33	; 51
     a1a:	33 e3       	ldi	r19, 0x33	; 51
     a1c:	43 ea       	ldi	r20, 0xA3	; 163
     a1e:	50 e4       	ldi	r21, 0x40	; 64
     a20:	43 d4       	rcall	.+2182   	; 0x12a8 <__mulsf3>
	tmp = tmp/15;
     a22:	20 e0       	ldi	r18, 0x00	; 0
     a24:	30 e0       	ldi	r19, 0x00	; 0
     a26:	40 e7       	ldi	r20, 0x70	; 112
     a28:	51 e4       	ldi	r21, 0x41	; 65
     a2a:	33 d5       	rcall	.+2662   	; 0x1492 <__divsf3>
     a2c:	2d ec       	ldi	r18, 0xCD	; 205
     a2e:	3c ec       	ldi	r19, 0xCC	; 204
     a30:	4c ec       	ldi	r20, 0xCC	; 204
     a32:	5d e3       	ldi	r21, 0x3D	; 61
     a34:	2e d5       	rcall	.+2652   	; 0x1492 <__divsf3>
	return tmp = tmp/0.10; 

}
     a36:	08 95       	ret

00000a38 <adj_current>:
void in_chaging(i_charger *ic)
{
    return;
}
void adj_current(i_charger *ic)
{
     a38:	af 92       	push	r10
     a3a:	bf 92       	push	r11
     a3c:	cf 92       	push	r12
     a3e:	df 92       	push	r13
     a40:	0f 93       	push	r16
     a42:	df 93       	push	r29
     a44:	cf 93       	push	r28
     a46:	cd b7       	in	r28, 0x3d	; 61
     a48:	de b7       	in	r29, 0x3e	; 62
     a4a:	28 97       	sbiw	r28, 0x08	; 8
     a4c:	0f b6       	in	r0, 0x3f	; 63
     a4e:	f8 94       	cli
     a50:	de bf       	out	0x3e, r29	; 62
     a52:	0f be       	out	0x3f, r0	; 63
     a54:	cd bf       	out	0x3d, r28	; 61
     a56:	5c 01       	movw	r10, r24
	unsigned char pwm= pwm_getduty();
     a58:	9d db       	rcall	.-2246   	; 0x194 <pwm_getduty>
     a5a:	08 2f       	mov	r16, r24
     a5c:	fe e1       	ldi	r31, 0x1E	; 30
     a5e:	df 2e       	mov	r13, r31
     a60:	ef e0       	ldi	r30, 0x0F	; 15
     a62:	ce 2e       	mov	r12, r30
     a64:	3f c0       	rjmp	.+126    	; 0xae4 <adj_current+0xac>
	/*adjust to around the ma, and don't change again to detect -DeltaV*/
    char n=15+15;
	char step = 15;
	while(--n){
		if(adc_A() < (ic->charging_Amp-0.010)){
     a66:	d1 df       	rcall	.-94     	; 0xa0a <adc_A>
     a68:	6d 83       	std	Y+5, r22	; 0x05
     a6a:	7e 83       	std	Y+6, r23	; 0x06
     a6c:	8f 83       	std	Y+7, r24	; 0x07
     a6e:	98 87       	std	Y+8, r25	; 0x08
     a70:	f5 01       	movw	r30, r10
     a72:	61 89       	ldd	r22, Z+17	; 0x11
     a74:	72 89       	ldd	r23, Z+18	; 0x12
     a76:	83 89       	ldd	r24, Z+19	; 0x13
     a78:	94 89       	ldd	r25, Z+20	; 0x14
     a7a:	2a e0       	ldi	r18, 0x0A	; 10
     a7c:	37 ed       	ldi	r19, 0xD7	; 215
     a7e:	43 e2       	ldi	r20, 0x23	; 35
     a80:	5c e3       	ldi	r21, 0x3C	; 60
     a82:	c0 d3       	rcall	.+1920   	; 0x1204 <__subsf3>
     a84:	9b 01       	movw	r18, r22
     a86:	ac 01       	movw	r20, r24
     a88:	6d 81       	ldd	r22, Y+5	; 0x05
     a8a:	7e 81       	ldd	r23, Y+6	; 0x06
     a8c:	8f 81       	ldd	r24, Y+7	; 0x07
     a8e:	98 85       	ldd	r25, Y+8	; 0x08
     a90:	fd d5       	rcall	.+3066   	; 0x168c <__ltsf2>
     a92:	88 23       	and	r24, r24
     a94:	34 f4       	brge	.+12     	; 0xaa2 <adj_current+0x6a>
			pwm +=step;
     a96:	0c 0d       	add	r16, r12
     a98:	09 3c       	cpi	r16, 0xC9	; 201
     a9a:	08 f0       	brcs	.+2      	; 0xa9e <adj_current+0x66>
     a9c:	08 ec       	ldi	r16, 0xC8	; 200
			if(pwm>200)
				pwm=200;
 			pwm_setduty(pwm);
     a9e:	80 2f       	mov	r24, r16
     aa0:	75 db       	rcall	.-2326   	; 0x18c <pwm_setduty>
		}
		if(adc_A() > (ic->charging_Amp+0.010)){
     aa2:	b3 df       	rcall	.-154    	; 0xa0a <adc_A>
     aa4:	69 83       	std	Y+1, r22	; 0x01
     aa6:	7a 83       	std	Y+2, r23	; 0x02
     aa8:	8b 83       	std	Y+3, r24	; 0x03
     aaa:	9c 83       	std	Y+4, r25	; 0x04
     aac:	f5 01       	movw	r30, r10
     aae:	61 89       	ldd	r22, Z+17	; 0x11
     ab0:	72 89       	ldd	r23, Z+18	; 0x12
     ab2:	83 89       	ldd	r24, Z+19	; 0x13
     ab4:	94 89       	ldd	r25, Z+20	; 0x14
     ab6:	2a e0       	ldi	r18, 0x0A	; 10
     ab8:	37 ed       	ldi	r19, 0xD7	; 215
     aba:	43 e2       	ldi	r20, 0x23	; 35
     abc:	5c e3       	ldi	r21, 0x3C	; 60
     abe:	cd d3       	rcall	.+1946   	; 0x125a <__addsf3>
     ac0:	9b 01       	movw	r18, r22
     ac2:	ac 01       	movw	r20, r24
     ac4:	69 81       	ldd	r22, Y+1	; 0x01
     ac6:	7a 81       	ldd	r23, Y+2	; 0x02
     ac8:	8b 81       	ldd	r24, Y+3	; 0x03
     aca:	9c 81       	ldd	r25, Y+4	; 0x04
     acc:	89 d5       	rcall	.+2834   	; 0x15e0 <__gtsf2>
     ace:	18 16       	cp	r1, r24
     ad0:	3c f4       	brge	.+14     	; 0xae0 <adj_current+0xa8>
		    step = 1;
			pwm -- ;
     ad2:	01 50       	subi	r16, 0x01	; 1
			if(!pwm)
     ad4:	09 f4       	brne	.+2      	; 0xad8 <adj_current+0xa0>
     ad6:	01 e0       	ldi	r16, 0x01	; 1
				pwm = 1;
			pwm_setduty(pwm);
     ad8:	80 2f       	mov	r24, r16
     ada:	58 db       	rcall	.-2384   	; 0x18c <pwm_setduty>
     adc:	cc 24       	eor	r12, r12
     ade:	c3 94       	inc	r12
			

		}
       ic_update_lcd(ic);
     ae0:	c5 01       	movw	r24, r10
     ae2:	5c de       	rcall	.-840    	; 0x79c <ic_update_lcd>
{
	unsigned char pwm= pwm_getduty();
	/*adjust to around the ma, and don't change again to detect -DeltaV*/
    char n=15+15;
	char step = 15;
	while(--n){
     ae4:	da 94       	dec	r13
     ae6:	09 f0       	breq	.+2      	; 0xaea <adj_current+0xb2>
     ae8:	be cf       	rjmp	.-132    	; 0xa66 <adj_current+0x2e>

		}
       ic_update_lcd(ic);
       
	}
}
     aea:	28 96       	adiw	r28, 0x08	; 8
     aec:	0f b6       	in	r0, 0x3f	; 63
     aee:	f8 94       	cli
     af0:	de bf       	out	0x3e, r29	; 62
     af2:	0f be       	out	0x3f, r0	; 63
     af4:	cd bf       	out	0x3d, r28	; 61
     af6:	cf 91       	pop	r28
     af8:	df 91       	pop	r29
     afa:	0f 91       	pop	r16
     afc:	df 90       	pop	r13
     afe:	cf 90       	pop	r12
     b00:	bf 90       	pop	r11
     b02:	af 90       	pop	r10
     b04:	08 95       	ret

00000b06 <adc_V>:
}
float adc_V()
{

//  sprintf(str,"%04imV",_adc(0));
   float adc= lowpass_adc(0);
     b06:	80 e0       	ldi	r24, 0x00	; 0
     b08:	c0 de       	rcall	.-640    	; 0x88a <lowpass_adc>
     b0a:	20 e0       	ldi	r18, 0x00	; 0
     b0c:	30 ec       	ldi	r19, 0xC0	; 192
     b0e:	4f e7       	ldi	r20, 0x7F	; 127
     b10:	54 e4       	ldi	r21, 0x44	; 68
     b12:	bf d4       	rcall	.+2430   	; 0x1492 <__divsf3>
     b14:	23 e3       	ldi	r18, 0x33	; 51
     b16:	33 e3       	ldi	r19, 0x33	; 51
     b18:	43 ea       	ldi	r20, 0xA3	; 163
     b1a:	50 e4       	ldi	r21, 0x40	; 64
     b1c:	c5 d3       	rcall	.+1930   	; 0x12a8 <__mulsf3>
     b1e:	2a e9       	ldi	r18, 0x9A	; 154
     b20:	39 e9       	ldi	r19, 0x99	; 153
     b22:	49 e1       	ldi	r20, 0x19	; 25
     b24:	50 e4       	ldi	r21, 0x40	; 64
     b26:	c0 d3       	rcall	.+1920   	; 0x12a8 <__mulsf3>
   return (((float)adc)/1023)*refV*2.4; //5mV*2.4 =12mV 

}
     b28:	08 95       	ret

00000b2a <stop>:
   infon("Pack  ",ic->cell_pack);
   return;
}

void stop(i_charger *ic)
{
     b2a:	cf 93       	push	r28
     b2c:	df 93       	push	r29
     b2e:	ec 01       	movw	r28, r24
    info("TOP");
     b30:	89 e9       	ldi	r24, 0x99	; 153
     b32:	90 e0       	ldi	r25, 0x00	; 0
     b34:	e5 dd       	rcall	.-1078   	; 0x700 <info>
	short x =1000*ic->top_voltage; 
	print10(x);
     b36:	6c 85       	ldd	r22, Y+12	; 0x0c
     b38:	7d 85       	ldd	r23, Y+13	; 0x0d
     b3a:	8e 85       	ldd	r24, Y+14	; 0x0e
     b3c:	9f 85       	ldd	r25, Y+15	; 0x0f
     b3e:	20 e0       	ldi	r18, 0x00	; 0
     b40:	30 e0       	ldi	r19, 0x00	; 0
     b42:	4a e7       	ldi	r20, 0x7A	; 122
     b44:	54 e4       	ldi	r21, 0x44	; 68
     b46:	b0 d3       	rcall	.+1888   	; 0x12a8 <__mulsf3>
     b48:	51 d6       	rcall	.+3234   	; 0x17ec <__fixsfsi>
     b4a:	dc 01       	movw	r26, r24
     b4c:	cb 01       	movw	r24, r22
     b4e:	a3 dc       	rcall	.-1722   	; 0x496 <print10>

	pwm_setduty(0);
     b50:	80 e0       	ldi	r24, 0x00	; 0
     b52:	1c db       	rcall	.-2504   	; 0x18c <pwm_setduty>
	ic->abs_voltage = adc_V();    
     b54:	d8 df       	rcall	.-80     	; 0xb06 <adc_V>
     b56:	69 8f       	std	Y+25, r22	; 0x19
     b58:	7a 8f       	std	Y+26, r23	; 0x1a
     b5a:	8b 8f       	std	Y+27, r24	; 0x1b
     b5c:	9c 8f       	std	Y+28, r25	; 0x1c
    if(ic->voltage < (1.38*ic->cell_pack)){ /*why there is a -dV?*/
     b5e:	6b 81       	ldd	r22, Y+3	; 0x03
     b60:	70 e0       	ldi	r23, 0x00	; 0
     b62:	88 27       	eor	r24, r24
     b64:	77 fd       	sbrc	r23, 7
     b66:	80 95       	com	r24
     b68:	98 2f       	mov	r25, r24
     b6a:	e6 d5       	rcall	.+3020   	; 0x1738 <__floatsisf>
     b6c:	27 ed       	ldi	r18, 0xD7	; 215
     b6e:	33 ea       	ldi	r19, 0xA3	; 163
     b70:	40 eb       	ldi	r20, 0xB0	; 176
     b72:	5f e3       	ldi	r21, 0x3F	; 63
     b74:	99 d3       	rcall	.+1842   	; 0x12a8 <__mulsf3>
     b76:	9b 01       	movw	r18, r22
     b78:	ac 01       	movw	r20, r24
     b7a:	68 85       	ldd	r22, Y+8	; 0x08
     b7c:	79 85       	ldd	r23, Y+9	; 0x09
     b7e:	8a 85       	ldd	r24, Y+10	; 0x0a
     b80:	9b 85       	ldd	r25, Y+11	; 0x0b
     b82:	84 d5       	rcall	.+2824   	; 0x168c <__ltsf2>
     b84:	88 23       	and	r24, r24
     b86:	84 f4       	brge	.+32     	; 0xba8 <stop+0x7e>
	   ic->i_stage = CHARCHING; /*restart charging */
     b88:	83 e0       	ldi	r24, 0x03	; 3
     b8a:	88 83       	st	Y, r24
	   ic->top_voltage = ic->voltage = 0;
     b8c:	80 e0       	ldi	r24, 0x00	; 0
     b8e:	90 e0       	ldi	r25, 0x00	; 0
     b90:	a0 e0       	ldi	r26, 0x00	; 0
     b92:	b0 e0       	ldi	r27, 0x00	; 0
     b94:	88 87       	std	Y+8, r24	; 0x08
     b96:	99 87       	std	Y+9, r25	; 0x09
     b98:	aa 87       	std	Y+10, r26	; 0x0a
     b9a:	bb 87       	std	Y+11, r27	; 0x0b
     b9c:	8c 87       	std	Y+12, r24	; 0x0c
     b9e:	9d 87       	std	Y+13, r25	; 0x0d
     ba0:	ae 87       	std	Y+14, r26	; 0x0e
     ba2:	bf 87       	std	Y+15, r27	; 0x0f
	   adj_current(ic);
     ba4:	ce 01       	movw	r24, r28
     ba6:	48 df       	rcall	.-368    	; 0xa38 <adj_current>
	}
}
     ba8:	df 91       	pop	r29
     baa:	cf 91       	pop	r28
     bac:	08 95       	ret

00000bae <detect_cell>:
/*************************************************/

#define BAT_LOW_V           (float)1.00    /* 0.5V  */

void detect_cell(i_charger *ic)
{
     bae:	af 92       	push	r10
     bb0:	bf 92       	push	r11
     bb2:	cf 92       	push	r12
     bb4:	df 92       	push	r13
     bb6:	ef 92       	push	r14
     bb8:	ff 92       	push	r15
     bba:	0f 93       	push	r16
     bbc:	1f 93       	push	r17
     bbe:	cf 93       	push	r28
     bc0:	df 93       	push	r29
     bc2:	ec 01       	movw	r28, r24
   float pwm_off,pwm_on,dv;
   
   pwm_setduty(0);
     bc4:	80 e0       	ldi	r24, 0x00	; 0
     bc6:	e2 da       	rcall	.-2620   	; 0x18c <pwm_setduty>
   delay(HZ/2);
     bc8:	64 ef       	ldi	r22, 0xF4	; 244
     bca:	71 e0       	ldi	r23, 0x01	; 1
     bcc:	80 e0       	ldi	r24, 0x00	; 0
     bce:	90 e0       	ldi	r25, 0x00	; 0
     bd0:	73 db       	rcall	.-2330   	; 0x2b8 <delay>

   pwm_off = adc_V();
     bd2:	99 df       	rcall	.-206    	; 0xb06 <adc_V>
     bd4:	5b 01       	movw	r10, r22
     bd6:	6c 01       	movw	r12, r24
   pwm_setduty(10);
     bd8:	8a e0       	ldi	r24, 0x0A	; 10
     bda:	d8 da       	rcall	.-2640   	; 0x18c <pwm_setduty>
   delay(HZ/2);
     bdc:	64 ef       	ldi	r22, 0xF4	; 244
     bde:	71 e0       	ldi	r23, 0x01	; 1
     be0:	80 e0       	ldi	r24, 0x00	; 0
     be2:	90 e0       	ldi	r25, 0x00	; 0
     be4:	69 db       	rcall	.-2350   	; 0x2b8 <delay>
   pwm_on = adc_V();
     be6:	8f df       	rcall	.-226    	; 0xb06 <adc_V>
     be8:	7b 01       	movw	r14, r22
     bea:	8c 01       	movw	r16, r24
   pwm_setduty(0);
     bec:	80 e0       	ldi	r24, 0x00	; 0
     bee:	ce da       	rcall	.-2660   	; 0x18c <pwm_setduty>
   
   if(pwm_off> pwm_on)
     bf0:	c6 01       	movw	r24, r12
     bf2:	b5 01       	movw	r22, r10
     bf4:	a8 01       	movw	r20, r16
     bf6:	97 01       	movw	r18, r14
     bf8:	f3 d4       	rcall	.+2534   	; 0x15e0 <__gtsf2>
     bfa:	18 16       	cp	r1, r24
     bfc:	2c f4       	brge	.+10     	; 0xc08 <detect_cell+0x5a>
      dv = pwm_off-pwm_on;
     bfe:	c6 01       	movw	r24, r12
     c00:	b5 01       	movw	r22, r10
     c02:	a8 01       	movw	r20, r16
     c04:	97 01       	movw	r18, r14
     c06:	04 c0       	rjmp	.+8      	; 0xc10 <detect_cell+0x62>
   else 
      dv = pwm_on-pwm_off;
     c08:	c8 01       	movw	r24, r16
     c0a:	b7 01       	movw	r22, r14
     c0c:	a6 01       	movw	r20, r12
     c0e:	95 01       	movw	r18, r10
     c10:	f9 d2       	rcall	.+1522   	; 0x1204 <__subsf3>
     c12:	7b 01       	movw	r14, r22
     c14:	8c 01       	movw	r16, r24

   if( (dv > (float)2.0) || (ic->voltage >= 12.00 )){
     c16:	20 e0       	ldi	r18, 0x00	; 0
     c18:	30 e0       	ldi	r19, 0x00	; 0
     c1a:	40 e0       	ldi	r20, 0x00	; 0
     c1c:	50 e4       	ldi	r21, 0x40	; 64
     c1e:	e0 d4       	rcall	.+2496   	; 0x15e0 <__gtsf2>
     c20:	18 16       	cp	r1, r24
     c22:	5c f0       	brlt	.+22     	; 0xc3a <detect_cell+0x8c>
     c24:	68 85       	ldd	r22, Y+8	; 0x08
     c26:	79 85       	ldd	r23, Y+9	; 0x09
     c28:	8a 85       	ldd	r24, Y+10	; 0x0a
     c2a:	9b 85       	ldd	r25, Y+11	; 0x0b
     c2c:	20 e0       	ldi	r18, 0x00	; 0
     c2e:	30 e0       	ldi	r19, 0x00	; 0
     c30:	40 e4       	ldi	r20, 0x40	; 64
     c32:	51 e4       	ldi	r21, 0x41	; 65
     c34:	00 d5       	rcall	.+2560   	; 0x1636 <__gesf2>
     c36:	88 23       	and	r24, r24
     c38:	54 f0       	brlt	.+20     	; 0xc4e <detect_cell+0xa0>
	  infon("NO CELL", (char)dv);
     c3a:	c8 01       	movw	r24, r16
     c3c:	b7 01       	movw	r22, r14
     c3e:	70 d1       	rcall	.+736    	; 0xf20 <__fixunssfsi>
     c40:	9b 01       	movw	r18, r22
     c42:	ac 01       	movw	r20, r24
     c44:	8d e9       	ldi	r24, 0x9D	; 157
     c46:	90 e0       	ldi	r25, 0x00	; 0
     c48:	62 2f       	mov	r22, r18
     c4a:	bb dd       	rcall	.-1162   	; 0x7c2 <infon>
     c4c:	19 c0       	rjmp	.+50     	; 0xc80 <detect_cell+0xd2>
      return ;
   }
   else {
	  info("Plug IN ");
     c4e:	85 ea       	ldi	r24, 0xA5	; 165
     c50:	90 e0       	ldi	r25, 0x00	; 0
     c52:	56 dd       	rcall	.-1364   	; 0x700 <info>
      delay(HZ*2);
     c54:	60 ed       	ldi	r22, 0xD0	; 208
     c56:	77 e0       	ldi	r23, 0x07	; 7
     c58:	80 e0       	ldi	r24, 0x00	; 0
     c5a:	90 e0       	ldi	r25, 0x00	; 0
     c5c:	2d db       	rcall	.-2470   	; 0x2b8 <delay>
   }
   if( ic->voltage < BAT_LOW_V ){
     c5e:	68 85       	ldd	r22, Y+8	; 0x08
     c60:	79 85       	ldd	r23, Y+9	; 0x09
     c62:	8a 85       	ldd	r24, Y+10	; 0x0a
     c64:	9b 85       	ldd	r25, Y+11	; 0x0b
     c66:	20 e0       	ldi	r18, 0x00	; 0
     c68:	30 e0       	ldi	r19, 0x00	; 0
     c6a:	40 e8       	ldi	r20, 0x80	; 128
     c6c:	5f e3       	ldi	r21, 0x3F	; 63
     c6e:	0e d5       	rcall	.+2588   	; 0x168c <__ltsf2>
     c70:	88 23       	and	r24, r24
     c72:	14 f4       	brge	.+4      	; 0xc78 <detect_cell+0xca>
       pwm_setduty(NICD_DETECT_PWM); /*very pre charging*/
     c74:	83 e0       	ldi	r24, 0x03	; 3
     c76:	03 c0       	rjmp	.+6      	; 0xc7e <detect_cell+0xd0>
   }else {
       ic->i_stage = DETECT_TYPE;
     c78:	81 e0       	ldi	r24, 0x01	; 1
     c7a:	88 83       	st	Y, r24
	   
	   pwm_setduty(0);
     c7c:	80 e0       	ldi	r24, 0x00	; 0
     c7e:	86 da       	rcall	.-2804   	; 0x18c <pwm_setduty>
   }
      
}
     c80:	df 91       	pop	r29
     c82:	cf 91       	pop	r28
     c84:	1f 91       	pop	r17
     c86:	0f 91       	pop	r16
     c88:	ff 90       	pop	r15
     c8a:	ef 90       	pop	r14
     c8c:	df 90       	pop	r13
     c8e:	cf 90       	pop	r12
     c90:	bf 90       	pop	r11
     c92:	af 90       	pop	r10
     c94:	08 95       	ret

00000c96 <charging_mode>:
	f(ic);
}


void charging_mode(i_charger *ic)
{
     c96:	af 92       	push	r10
     c98:	bf 92       	push	r11
     c9a:	cf 92       	push	r12
     c9c:	df 92       	push	r13
     c9e:	ef 92       	push	r14
     ca0:	ff 92       	push	r15
     ca2:	0f 93       	push	r16
     ca4:	1f 93       	push	r17
     ca6:	cf 93       	push	r28
     ca8:	df 93       	push	r29
     caa:	ec 01       	movw	r28, r24
	float ir;  
	float abs_voltage;
*/
   float deltaV = 0.010;

   if( (ic->voltage <= 0.100 /*V*/) || (ic->voltage >= 11.90) ){  //cell pull out
     cac:	e8 84       	ldd	r14, Y+8	; 0x08
     cae:	f9 84       	ldd	r15, Y+9	; 0x09
     cb0:	0a 85       	ldd	r16, Y+10	; 0x0a
     cb2:	1b 85       	ldd	r17, Y+11	; 0x0b
     cb4:	c8 01       	movw	r24, r16
     cb6:	b7 01       	movw	r22, r14
     cb8:	2d ec       	ldi	r18, 0xCD	; 205
     cba:	3c ec       	ldi	r19, 0xCC	; 204
     cbc:	4c ec       	ldi	r20, 0xCC	; 204
     cbe:	5d e3       	ldi	r21, 0x3D	; 61
     cc0:	10 d5       	rcall	.+2592   	; 0x16e2 <__lesf2>
     cc2:	18 16       	cp	r1, r24
     cc4:	4c f4       	brge	.+18     	; 0xcd8 <charging_mode+0x42>
     cc6:	c8 01       	movw	r24, r16
     cc8:	b7 01       	movw	r22, r14
     cca:	26 e6       	ldi	r18, 0x66	; 102
     ccc:	36 e6       	ldi	r19, 0x66	; 102
     cce:	4e e3       	ldi	r20, 0x3E	; 62
     cd0:	51 e4       	ldi	r21, 0x41	; 65
     cd2:	b1 d4       	rcall	.+2402   	; 0x1636 <__gesf2>
     cd4:	88 23       	and	r24, r24
     cd6:	14 f0       	brlt	.+4      	; 0xcdc <charging_mode+0x46>
      init_ic(ic);
     cd8:	ce 01       	movw	r24, r28
     cda:	ed dc       	rcall	.-1574   	; 0x6b6 <init_ic>

   }


   if(ic->i_stage != CHARCHING) /*not start charging*/
     cdc:	88 81       	ld	r24, Y
     cde:	83 30       	cpi	r24, 0x03	; 3
     ce0:	09 f0       	breq	.+2      	; 0xce4 <charging_mode+0x4e>
     ce2:	f1 c0       	rjmp	.+482    	; 0xec6 <charging_mode+0x230>
   		return;



   if( ic->abs_voltage < (NICD_FAST_VOLTAGE*ic->cell_pack)){
     ce4:	1b 81       	ldd	r17, Y+3	; 0x03
     ce6:	61 2f       	mov	r22, r17
     ce8:	70 e0       	ldi	r23, 0x00	; 0
     cea:	88 27       	eor	r24, r24
     cec:	77 fd       	sbrc	r23, 7
     cee:	80 95       	com	r24
     cf0:	98 2f       	mov	r25, r24
     cf2:	22 d5       	rcall	.+2628   	; 0x1738 <__floatsisf>
     cf4:	20 e0       	ldi	r18, 0x00	; 0
     cf6:	30 e0       	ldi	r19, 0x00	; 0
     cf8:	40 ea       	ldi	r20, 0xA0	; 160
     cfa:	5f e3       	ldi	r21, 0x3F	; 63
     cfc:	d5 d2       	rcall	.+1450   	; 0x12a8 <__mulsf3>
     cfe:	9b 01       	movw	r18, r22
     d00:	ac 01       	movw	r20, r24
     d02:	69 8d       	ldd	r22, Y+25	; 0x19
     d04:	7a 8d       	ldd	r23, Y+26	; 0x1a
     d06:	8b 8d       	ldd	r24, Y+27	; 0x1b
     d08:	9c 8d       	ldd	r25, Y+28	; 0x1c
     d0a:	c0 d4       	rcall	.+2432   	; 0x168c <__ltsf2>
     d0c:	88 23       	and	r24, r24
     d0e:	74 f5       	brge	.+92     	; 0xd6c <charging_mode+0xd6>
       ic->charging_Amp = NICD_PRE_CHAGE_MA;
     d10:	83 e3       	ldi	r24, 0x33	; 51
     d12:	93 e3       	ldi	r25, 0x33	; 51
     d14:	a3 eb       	ldi	r26, 0xB3	; 179
     d16:	be e3       	ldi	r27, 0x3E	; 62
     d18:	89 8b       	std	Y+17, r24	; 0x11
     d1a:	9a 8b       	std	Y+18, r25	; 0x12
     d1c:	ab 8b       	std	Y+19, r26	; 0x13
     d1e:	bc 8b       	std	Y+20, r27	; 0x14
	
	   if(ic->cell_pack == 7)
     d20:	17 30       	cpi	r17, 0x07	; 7
     d22:	41 f4       	brne	.+16     	; 0xd34 <charging_mode+0x9e>
   		{
      		ic->charging_Amp = V9_PRE_CHAGE_MA;
     d24:	8d ec       	ldi	r24, 0xCD	; 205
     d26:	9c ec       	ldi	r25, 0xCC	; 204
     d28:	ac e4       	ldi	r26, 0x4C	; 76
     d2a:	bd e3       	ldi	r27, 0x3D	; 61
     d2c:	89 8b       	std	Y+17, r24	; 0x11
     d2e:	9a 8b       	std	Y+18, r25	; 0x12
     d30:	ab 8b       	std	Y+19, r26	; 0x13
     d32:	bc 8b       	std	Y+20, r27	; 0x14
   		}
   		ic->charging_mode = PRE;
     d34:	81 e0       	ldi	r24, 0x01	; 1
     d36:	89 83       	std	Y+1, r24	; 0x01
	
		ic->abs_voltage = adc_V();    
     d38:	e6 de       	rcall	.-564    	; 0xb06 <adc_V>
     d3a:	69 8f       	std	Y+25, r22	; 0x19
     d3c:	7a 8f       	std	Y+26, r23	; 0x1a
     d3e:	8b 8f       	std	Y+27, r24	; 0x1b
     d40:	9c 8f       	std	Y+28, r25	; 0x1c
#if 1
        {
		static char cc=0;
		if(cc==0){ // update abs_voltage
     d42:	80 91 dd 01 	lds	r24, 0x01DD
     d46:	88 23       	and	r24, r24
     d48:	59 f4       	brne	.+22     	; 0xd60 <charging_mode+0xca>
		    char duty = pwm_getduty();
     d4a:	24 da       	rcall	.-3000   	; 0x194 <pwm_getduty>
     d4c:	18 2f       	mov	r17, r24
			pwm_setduty(0);
     d4e:	80 e0       	ldi	r24, 0x00	; 0
     d50:	1d da       	rcall	.-3014   	; 0x18c <pwm_setduty>

	   		ic->abs_voltage = adc_V();    
     d52:	d9 de       	rcall	.-590    	; 0xb06 <adc_V>
     d54:	69 8f       	std	Y+25, r22	; 0x19
     d56:	7a 8f       	std	Y+26, r23	; 0x1a
     d58:	8b 8f       	std	Y+27, r24	; 0x1b
     d5a:	9c 8f       	std	Y+28, r25	; 0x1c
			pwm_setduty(duty);
     d5c:	81 2f       	mov	r24, r17
     d5e:	16 da       	rcall	.-3028   	; 0x18c <pwm_setduty>
		}
		cc++;
     d60:	80 91 dd 01 	lds	r24, 0x01DD
     d64:	8f 5f       	subi	r24, 0xFF	; 255
     d66:	80 93 dd 01 	sts	0x01DD, r24
     d6a:	19 c0       	rjmp	.+50     	; 0xd9e <charging_mode+0x108>
		
		}
#endif
		   
   }else if(ic->charging_mode !=  FAST) {
     d6c:	89 81       	ldd	r24, Y+1	; 0x01
     d6e:	82 30       	cpi	r24, 0x02	; 2
     d70:	b1 f0       	breq	.+44     	; 0xd9e <charging_mode+0x108>
       
	   ic->charging_Amp = NICD_FAST_CHAGE_MA;
     d72:	8a e9       	ldi	r24, 0x9A	; 154
     d74:	99 e9       	ldi	r25, 0x99	; 153
     d76:	a9 e9       	ldi	r26, 0x99	; 153
     d78:	be e3       	ldi	r27, 0x3E	; 62
     d7a:	89 8b       	std	Y+17, r24	; 0x11
     d7c:	9a 8b       	std	Y+18, r25	; 0x12
     d7e:	ab 8b       	std	Y+19, r26	; 0x13
     d80:	bc 8b       	std	Y+20, r27	; 0x14
	   if(ic->cell_pack == 7)
     d82:	17 30       	cpi	r17, 0x07	; 7
     d84:	41 f4       	brne	.+16     	; 0xd96 <charging_mode+0x100>
   	   {
       		ic->charging_Amp = V9_FAST_CHAGE_MA;
     d86:	8c ee       	ldi	r24, 0xEC	; 236
     d88:	91 e5       	ldi	r25, 0x51	; 81
     d8a:	a8 e3       	ldi	r26, 0x38	; 56
     d8c:	be e3       	ldi	r27, 0x3E	; 62
     d8e:	89 8b       	std	Y+17, r24	; 0x11
     d90:	9a 8b       	std	Y+18, r25	; 0x12
     d92:	ab 8b       	std	Y+19, r26	; 0x13
     d94:	bc 8b       	std	Y+20, r27	; 0x14
   	   }
       ic->charging_mode =  FAST;
     d96:	82 e0       	ldi	r24, 0x02	; 2
     d98:	89 83       	std	Y+1, r24	; 0x01
	   adj_current(ic);
     d9a:	ce 01       	movw	r24, r28
     d9c:	4d de       	rcall	.-870    	; 0xa38 <adj_current>
   

   

   /*adjust current if need*/
   if(ic->charging_mode !=  FAST)
     d9e:	89 81       	ldd	r24, Y+1	; 0x01
     da0:	82 30       	cpi	r24, 0x02	; 2
     da2:	31 f1       	breq	.+76     	; 0xdf0 <charging_mode+0x15a>
   if( (ic->current>(ic->charging_Amp+0.03)) ||
     da4:	ac 80       	ldd	r10, Y+4	; 0x04
     da6:	bd 80       	ldd	r11, Y+5	; 0x05
     da8:	ce 80       	ldd	r12, Y+6	; 0x06
     daa:	df 80       	ldd	r13, Y+7	; 0x07
     dac:	e9 88       	ldd	r14, Y+17	; 0x11
     dae:	fa 88       	ldd	r15, Y+18	; 0x12
     db0:	0b 89       	ldd	r16, Y+19	; 0x13
     db2:	1c 89       	ldd	r17, Y+20	; 0x14
     db4:	c8 01       	movw	r24, r16
     db6:	b7 01       	movw	r22, r14
     db8:	2f e8       	ldi	r18, 0x8F	; 143
     dba:	32 ec       	ldi	r19, 0xC2	; 194
     dbc:	45 ef       	ldi	r20, 0xF5	; 245
     dbe:	5c e3       	ldi	r21, 0x3C	; 60
     dc0:	4c d2       	rcall	.+1176   	; 0x125a <__addsf3>
     dc2:	9b 01       	movw	r18, r22
     dc4:	ac 01       	movw	r20, r24
     dc6:	c6 01       	movw	r24, r12
     dc8:	b5 01       	movw	r22, r10
     dca:	0a d4       	rcall	.+2068   	; 0x15e0 <__gtsf2>
     dcc:	18 16       	cp	r1, r24
     dce:	74 f0       	brlt	.+28     	; 0xdec <charging_mode+0x156>
     dd0:	c8 01       	movw	r24, r16
     dd2:	b7 01       	movw	r22, r14
     dd4:	2f e8       	ldi	r18, 0x8F	; 143
     dd6:	32 ec       	ldi	r19, 0xC2	; 194
     dd8:	45 ef       	ldi	r20, 0xF5	; 245
     dda:	5c e3       	ldi	r21, 0x3C	; 60
     ddc:	13 d2       	rcall	.+1062   	; 0x1204 <__subsf3>
     dde:	9b 01       	movw	r18, r22
     de0:	ac 01       	movw	r20, r24
     de2:	c6 01       	movw	r24, r12
     de4:	b5 01       	movw	r22, r10
     de6:	52 d4       	rcall	.+2212   	; 0x168c <__ltsf2>
     de8:	88 23       	and	r24, r24
     dea:	14 f4       	brge	.+4      	; 0xdf0 <charging_mode+0x15a>
       (ic->current<(ic->charging_Amp-0.03))
	 )
	  adj_current(ic);
     dec:	ce 01       	movw	r24, r28
     dee:	24 de       	rcall	.-952    	; 0xa38 <adj_current>

   /* -DeltaV detect*/
   if(ic->charging_mode != FAST)
     df0:	89 81       	ldd	r24, Y+1	; 0x01
     df2:	82 30       	cpi	r24, 0x02	; 2
     df4:	09 f0       	breq	.+2      	; 0xdf8 <charging_mode+0x162>
     df6:	67 c0       	rjmp	.+206    	; 0xec6 <charging_mode+0x230>
   		return;
   if(ic->voltage > ic->top_voltage){
     df8:	e8 84       	ldd	r14, Y+8	; 0x08
     dfa:	f9 84       	ldd	r15, Y+9	; 0x09
     dfc:	0a 85       	ldd	r16, Y+10	; 0x0a
     dfe:	1b 85       	ldd	r17, Y+11	; 0x0b
     e00:	c8 01       	movw	r24, r16
     e02:	b7 01       	movw	r22, r14
     e04:	2c 85       	ldd	r18, Y+12	; 0x0c
     e06:	3d 85       	ldd	r19, Y+13	; 0x0d
     e08:	4e 85       	ldd	r20, Y+14	; 0x0e
     e0a:	5f 85       	ldd	r21, Y+15	; 0x0f
     e0c:	e9 d3       	rcall	.+2002   	; 0x15e0 <__gtsf2>
     e0e:	18 16       	cp	r1, r24
     e10:	ac f4       	brge	.+42     	; 0xe3c <charging_mode+0x1a6>
       ic->top_voltage = ic->voltage;
     e12:	ec 86       	std	Y+12, r14	; 0x0c
     e14:	fd 86       	std	Y+13, r15	; 0x0d
     e16:	0e 87       	std	Y+14, r16	; 0x0e
     e18:	1f 87       	std	Y+15, r17	; 0x0f
	   info("TOP");
     e1a:	89 e9       	ldi	r24, 0x99	; 153
     e1c:	90 e0       	ldi	r25, 0x00	; 0
     e1e:	70 dc       	rcall	.-1824   	; 0x700 <info>
	   short x =1000*ic->top_voltage; 
	   print10(x);
     e20:	6c 85       	ldd	r22, Y+12	; 0x0c
     e22:	7d 85       	ldd	r23, Y+13	; 0x0d
     e24:	8e 85       	ldd	r24, Y+14	; 0x0e
     e26:	9f 85       	ldd	r25, Y+15	; 0x0f
     e28:	20 e0       	ldi	r18, 0x00	; 0
     e2a:	30 e0       	ldi	r19, 0x00	; 0
     e2c:	4a e7       	ldi	r20, 0x7A	; 122
     e2e:	54 e4       	ldi	r21, 0x44	; 68
     e30:	3b d2       	rcall	.+1142   	; 0x12a8 <__mulsf3>
     e32:	dc d4       	rcall	.+2488   	; 0x17ec <__fixsfsi>
     e34:	dc 01       	movw	r26, r24
     e36:	cb 01       	movw	r24, r22
     e38:	2e db       	rcall	.-2468   	; 0x496 <print10>

	   ic->delta_times=0;
     e3a:	18 8a       	std	Y+16, r1	; 0x10
   }


   if (ic->cell_pack >2)
     e3c:	8b 81       	ldd	r24, Y+3	; 0x03
     e3e:	83 30       	cpi	r24, 0x03	; 3
     e40:	28 f0       	brcs	.+10     	; 0xe4c <charging_mode+0x1b6>
     e42:	6f e8       	ldi	r22, 0x8F	; 143
     e44:	72 ec       	ldi	r23, 0xC2	; 194
     e46:	85 e7       	ldi	r24, 0x75	; 117
     e48:	9c e3       	ldi	r25, 0x3C	; 60
     e4a:	04 c0       	rjmp	.+8      	; 0xe54 <charging_mode+0x1be>
     e4c:	6a e0       	ldi	r22, 0x0A	; 10
     e4e:	77 ed       	ldi	r23, 0xD7	; 215
     e50:	83 e2       	ldi	r24, 0x23	; 35
     e52:	9c e3       	ldi	r25, 0x3C	; 60
       deltaV = 0.015; /*reduce -dV, that's cell pack, because not all cell reach full at same time,
	                   so, -dv became small..*/
   if( ic->top_voltage > (ic->voltage+deltaV) ){
     e54:	28 85       	ldd	r18, Y+8	; 0x08
     e56:	39 85       	ldd	r19, Y+9	; 0x09
     e58:	4a 85       	ldd	r20, Y+10	; 0x0a
     e5a:	5b 85       	ldd	r21, Y+11	; 0x0b
     e5c:	fe d1       	rcall	.+1020   	; 0x125a <__addsf3>
     e5e:	9b 01       	movw	r18, r22
     e60:	ac 01       	movw	r20, r24
     e62:	6c 85       	ldd	r22, Y+12	; 0x0c
     e64:	7d 85       	ldd	r23, Y+13	; 0x0d
     e66:	8e 85       	ldd	r24, Y+14	; 0x0e
     e68:	9f 85       	ldd	r25, Y+15	; 0x0f
     e6a:	ba d3       	rcall	.+1908   	; 0x15e0 <__gtsf2>
     e6c:	18 16       	cp	r1, r24
     e6e:	5c f5       	brge	.+86     	; 0xec6 <charging_mode+0x230>
       	ic->delta_times++;
     e70:	68 89       	ldd	r22, Y+16	; 0x10
     e72:	6f 5f       	subi	r22, 0xFF	; 255
     e74:	68 8b       	std	Y+16, r22	; 0x10
 		infon("   -dV:",ic->delta_times);
     e76:	8e ea       	ldi	r24, 0xAE	; 174
     e78:	90 e0       	ldi	r25, 0x00	; 0
     e7a:	a3 dc       	rcall	.-1722   	; 0x7c2 <infon>
     e7c:	84 ec       	ldi	r24, 0xC4	; 196
     e7e:	99 e0       	ldi	r25, 0x09	; 9
     e80:	24 e6       	ldi	r18, 0x64	; 100
     e82:	30 e0       	ldi	r19, 0x00	; 0
     e84:	f9 01       	movw	r30, r18
     e86:	31 97       	sbiw	r30, 0x01	; 1
     e88:	f1 f7       	brne	.-4      	; 0xe86 <charging_mode+0x1f0>
		{
			// wait 1/10 ms
			_delay_loop_2(((F_CPU) / 4e3) / 10);
			__ticks --;
     e8a:	01 97       	sbiw	r24, 0x01	; 1
		__ticks = 1;
	else if (__tmp > 65535)
	{
		//	__ticks = requested delay in 1/10 ms
		__ticks = (uint16_t) (__ms * 10.0);
		while(__ticks)
     e8c:	d9 f7       	brne	.-10     	; 0xe84 <charging_mode+0x1ee>
		_delay_ms(250);
		if(ic->delta_times >3){
     e8e:	88 89       	ldd	r24, Y+16	; 0x10
     e90:	84 30       	cpi	r24, 0x04	; 4
     e92:	c8 f0       	brcs	.+50     	; 0xec6 <charging_mode+0x230>
			ic->i_stage = STOP; /*STOP and update abs voltage*/
     e94:	84 e0       	ldi	r24, 0x04	; 4
     e96:	88 83       	st	Y, r24
			lcd_cursor(0,0);
     e98:	80 e0       	ldi	r24, 0x00	; 0
     e9a:	90 e0       	ldi	r25, 0x00	; 0
     e9c:	60 e0       	ldi	r22, 0x00	; 0
     e9e:	70 e0       	ldi	r23, 0x00	; 0
     ea0:	4a db       	rcall	.-2412   	; 0x536 <lcd_cursor>
            lcd_puts("END");
     ea2:	86 eb       	ldi	r24, 0xB6	; 182
     ea4:	90 e0       	ldi	r25, 0x00	; 0
     ea6:	ea da       	rcall	.-2604   	; 0x47c <lcd_puts>
            short x = 1000*ic->voltage;
	        print10(x); 
     ea8:	68 85       	ldd	r22, Y+8	; 0x08
     eaa:	79 85       	ldd	r23, Y+9	; 0x09
     eac:	8a 85       	ldd	r24, Y+10	; 0x0a
     eae:	9b 85       	ldd	r25, Y+11	; 0x0b
     eb0:	20 e0       	ldi	r18, 0x00	; 0
     eb2:	30 e0       	ldi	r19, 0x00	; 0
     eb4:	4a e7       	ldi	r20, 0x7A	; 122
     eb6:	54 e4       	ldi	r21, 0x44	; 68
     eb8:	f7 d1       	rcall	.+1006   	; 0x12a8 <__mulsf3>
     eba:	98 d4       	rcall	.+2352   	; 0x17ec <__fixsfsi>
     ebc:	dc 01       	movw	r26, r24
     ebe:	cb 01       	movw	r24, r22
     ec0:	ea da       	rcall	.-2604   	; 0x496 <print10>
			pwm_setduty(0);
     ec2:	80 e0       	ldi	r24, 0x00	; 0
     ec4:	63 d9       	rcall	.-3386   	; 0x18c <pwm_setduty>
		}
   }

}
     ec6:	df 91       	pop	r29
     ec8:	cf 91       	pop	r28
     eca:	1f 91       	pop	r17
     ecc:	0f 91       	pop	r16
     ece:	ff 90       	pop	r15
     ed0:	ef 90       	pop	r14
     ed2:	df 90       	pop	r13
     ed4:	cf 90       	pop	r12
     ed6:	bf 90       	pop	r11
     ed8:	af 90       	pop	r10
     eda:	08 95       	ret

00000edc <charging>:
    in_chaging, /*in charging*/
	stop,
};

void charging(i_charger *ic)
{
     edc:	0f 93       	push	r16
     ede:	1f 93       	push	r17
     ee0:	8c 01       	movw	r16, r24

    ic->voltage = adc_V();
     ee2:	11 de       	rcall	.-990    	; 0xb06 <adc_V>
     ee4:	d8 01       	movw	r26, r16
     ee6:	18 96       	adiw	r26, 0x08	; 8
     ee8:	6d 93       	st	X+, r22
     eea:	7d 93       	st	X+, r23
     eec:	8d 93       	st	X+, r24
     eee:	9c 93       	st	X, r25
     ef0:	1b 97       	sbiw	r26, 0x0b	; 11
    ic->current = adc_A();
     ef2:	8b dd       	rcall	.-1258   	; 0xa0a <adc_A>
     ef4:	f8 01       	movw	r30, r16
     ef6:	64 83       	std	Z+4, r22	; 0x04
     ef8:	75 83       	std	Z+5, r23	; 0x05
     efa:	86 83       	std	Z+6, r24	; 0x06
     efc:	97 83       	std	Z+7, r25	; 0x07
	
	charging_mode(ic);
     efe:	c8 01       	movw	r24, r16
     f00:	ca de       	rcall	.-620    	; 0xc96 <charging_mode>

	void (*f)(i_charger*);
	f= _fun[ic->i_stage];
	f(ic);
     f02:	d8 01       	movw	r26, r16
     f04:	ec 91       	ld	r30, X
     f06:	f0 e0       	ldi	r31, 0x00	; 0
     f08:	ee 0f       	add	r30, r30
     f0a:	ff 1f       	adc	r31, r31
     f0c:	e6 54       	subi	r30, 0x46	; 70
     f0e:	ff 4f       	sbci	r31, 0xFF	; 255
     f10:	01 90       	ld	r0, Z+
     f12:	f0 81       	ld	r31, Z
     f14:	e0 2d       	mov	r30, r0
     f16:	c8 01       	movw	r24, r16
     f18:	09 95       	icall
}
     f1a:	1f 91       	pop	r17
     f1c:	0f 91       	pop	r16
     f1e:	08 95       	ret

00000f20 <__fixunssfsi>:
     f20:	ef 92       	push	r14
     f22:	ff 92       	push	r15
     f24:	0f 93       	push	r16
     f26:	1f 93       	push	r17
     f28:	7b 01       	movw	r14, r22
     f2a:	8c 01       	movw	r16, r24
     f2c:	20 e0       	ldi	r18, 0x00	; 0
     f2e:	30 e0       	ldi	r19, 0x00	; 0
     f30:	40 e0       	ldi	r20, 0x00	; 0
     f32:	5f e4       	ldi	r21, 0x4F	; 79
     f34:	80 d3       	rcall	.+1792   	; 0x1636 <__gesf2>
     f36:	88 23       	and	r24, r24
     f38:	7c f0       	brlt	.+30     	; 0xf58 <__fixunssfsi+0x38>
     f3a:	c8 01       	movw	r24, r16
     f3c:	b7 01       	movw	r22, r14
     f3e:	20 e0       	ldi	r18, 0x00	; 0
     f40:	30 e0       	ldi	r19, 0x00	; 0
     f42:	40 e0       	ldi	r20, 0x00	; 0
     f44:	5f e4       	ldi	r21, 0x4F	; 79
     f46:	5e d1       	rcall	.+700    	; 0x1204 <__subsf3>
     f48:	51 d4       	rcall	.+2210   	; 0x17ec <__fixsfsi>
     f4a:	9b 01       	movw	r18, r22
     f4c:	ac 01       	movw	r20, r24
     f4e:	20 50       	subi	r18, 0x00	; 0
     f50:	30 40       	sbci	r19, 0x00	; 0
     f52:	40 40       	sbci	r20, 0x00	; 0
     f54:	50 48       	sbci	r21, 0x80	; 128
     f56:	05 c0       	rjmp	.+10     	; 0xf62 <__fixunssfsi+0x42>
     f58:	c8 01       	movw	r24, r16
     f5a:	b7 01       	movw	r22, r14
     f5c:	47 d4       	rcall	.+2190   	; 0x17ec <__fixsfsi>
     f5e:	9b 01       	movw	r18, r22
     f60:	ac 01       	movw	r20, r24
     f62:	b9 01       	movw	r22, r18
     f64:	ca 01       	movw	r24, r20
     f66:	1f 91       	pop	r17
     f68:	0f 91       	pop	r16
     f6a:	ff 90       	pop	r15
     f6c:	ef 90       	pop	r14
     f6e:	08 95       	ret

00000f70 <_fpadd_parts>:
     f70:	a0 e0       	ldi	r26, 0x00	; 0
     f72:	b0 e0       	ldi	r27, 0x00	; 0
     f74:	ed eb       	ldi	r30, 0xBD	; 189
     f76:	f7 e0       	ldi	r31, 0x07	; 7
     f78:	93 c6       	rjmp	.+3366   	; 0x1ca0 <__prologue_saves__>
     f7a:	dc 01       	movw	r26, r24
     f7c:	2b 01       	movw	r4, r22
     f7e:	fa 01       	movw	r30, r20
     f80:	9c 91       	ld	r25, X
     f82:	92 30       	cpi	r25, 0x02	; 2
     f84:	08 f4       	brcc	.+2      	; 0xf88 <_fpadd_parts+0x18>
     f86:	39 c1       	rjmp	.+626    	; 0x11fa <_fpadd_parts+0x28a>
     f88:	eb 01       	movw	r28, r22
     f8a:	88 81       	ld	r24, Y
     f8c:	82 30       	cpi	r24, 0x02	; 2
     f8e:	08 f4       	brcc	.+2      	; 0xf92 <_fpadd_parts+0x22>
     f90:	33 c1       	rjmp	.+614    	; 0x11f8 <_fpadd_parts+0x288>
     f92:	94 30       	cpi	r25, 0x04	; 4
     f94:	69 f4       	brne	.+26     	; 0xfb0 <_fpadd_parts+0x40>
     f96:	84 30       	cpi	r24, 0x04	; 4
     f98:	09 f0       	breq	.+2      	; 0xf9c <_fpadd_parts+0x2c>
     f9a:	2f c1       	rjmp	.+606    	; 0x11fa <_fpadd_parts+0x28a>
     f9c:	11 96       	adiw	r26, 0x01	; 1
     f9e:	9c 91       	ld	r25, X
     fa0:	11 97       	sbiw	r26, 0x01	; 1
     fa2:	89 81       	ldd	r24, Y+1	; 0x01
     fa4:	98 17       	cp	r25, r24
     fa6:	09 f4       	brne	.+2      	; 0xfaa <_fpadd_parts+0x3a>
     fa8:	28 c1       	rjmp	.+592    	; 0x11fa <_fpadd_parts+0x28a>
     faa:	a4 ec       	ldi	r26, 0xC4	; 196
     fac:	b0 e0       	ldi	r27, 0x00	; 0
     fae:	25 c1       	rjmp	.+586    	; 0x11fa <_fpadd_parts+0x28a>
     fb0:	84 30       	cpi	r24, 0x04	; 4
     fb2:	09 f4       	brne	.+2      	; 0xfb6 <_fpadd_parts+0x46>
     fb4:	21 c1       	rjmp	.+578    	; 0x11f8 <_fpadd_parts+0x288>
     fb6:	82 30       	cpi	r24, 0x02	; 2
     fb8:	a9 f4       	brne	.+42     	; 0xfe4 <_fpadd_parts+0x74>
     fba:	92 30       	cpi	r25, 0x02	; 2
     fbc:	09 f0       	breq	.+2      	; 0xfc0 <_fpadd_parts+0x50>
     fbe:	1d c1       	rjmp	.+570    	; 0x11fa <_fpadd_parts+0x28a>
     fc0:	9a 01       	movw	r18, r20
     fc2:	ad 01       	movw	r20, r26
     fc4:	88 e0       	ldi	r24, 0x08	; 8
     fc6:	ea 01       	movw	r28, r20
     fc8:	09 90       	ld	r0, Y+
     fca:	ae 01       	movw	r20, r28
     fcc:	e9 01       	movw	r28, r18
     fce:	09 92       	st	Y+, r0
     fd0:	9e 01       	movw	r18, r28
     fd2:	81 50       	subi	r24, 0x01	; 1
     fd4:	c1 f7       	brne	.-16     	; 0xfc6 <_fpadd_parts+0x56>
     fd6:	e2 01       	movw	r28, r4
     fd8:	89 81       	ldd	r24, Y+1	; 0x01
     fda:	11 96       	adiw	r26, 0x01	; 1
     fdc:	9c 91       	ld	r25, X
     fde:	89 23       	and	r24, r25
     fe0:	81 83       	std	Z+1, r24	; 0x01
     fe2:	08 c1       	rjmp	.+528    	; 0x11f4 <_fpadd_parts+0x284>
     fe4:	92 30       	cpi	r25, 0x02	; 2
     fe6:	09 f4       	brne	.+2      	; 0xfea <_fpadd_parts+0x7a>
     fe8:	07 c1       	rjmp	.+526    	; 0x11f8 <_fpadd_parts+0x288>
     fea:	12 96       	adiw	r26, 0x02	; 2
     fec:	2d 90       	ld	r2, X+
     fee:	3c 90       	ld	r3, X
     ff0:	13 97       	sbiw	r26, 0x03	; 3
     ff2:	eb 01       	movw	r28, r22
     ff4:	8a 81       	ldd	r24, Y+2	; 0x02
     ff6:	9b 81       	ldd	r25, Y+3	; 0x03
     ff8:	14 96       	adiw	r26, 0x04	; 4
     ffa:	ad 90       	ld	r10, X+
     ffc:	bd 90       	ld	r11, X+
     ffe:	cd 90       	ld	r12, X+
    1000:	dc 90       	ld	r13, X
    1002:	17 97       	sbiw	r26, 0x07	; 7
    1004:	ec 80       	ldd	r14, Y+4	; 0x04
    1006:	fd 80       	ldd	r15, Y+5	; 0x05
    1008:	0e 81       	ldd	r16, Y+6	; 0x06
    100a:	1f 81       	ldd	r17, Y+7	; 0x07
    100c:	91 01       	movw	r18, r2
    100e:	28 1b       	sub	r18, r24
    1010:	39 0b       	sbc	r19, r25
    1012:	b9 01       	movw	r22, r18
    1014:	37 ff       	sbrs	r19, 7
    1016:	04 c0       	rjmp	.+8      	; 0x1020 <_fpadd_parts+0xb0>
    1018:	66 27       	eor	r22, r22
    101a:	77 27       	eor	r23, r23
    101c:	62 1b       	sub	r22, r18
    101e:	73 0b       	sbc	r23, r19
    1020:	60 32       	cpi	r22, 0x20	; 32
    1022:	71 05       	cpc	r23, r1
    1024:	0c f0       	brlt	.+2      	; 0x1028 <_fpadd_parts+0xb8>
    1026:	61 c0       	rjmp	.+194    	; 0x10ea <_fpadd_parts+0x17a>
    1028:	12 16       	cp	r1, r18
    102a:	13 06       	cpc	r1, r19
    102c:	6c f5       	brge	.+90     	; 0x1088 <_fpadd_parts+0x118>
    102e:	37 01       	movw	r6, r14
    1030:	48 01       	movw	r8, r16
    1032:	06 2e       	mov	r0, r22
    1034:	04 c0       	rjmp	.+8      	; 0x103e <_fpadd_parts+0xce>
    1036:	96 94       	lsr	r9
    1038:	87 94       	ror	r8
    103a:	77 94       	ror	r7
    103c:	67 94       	ror	r6
    103e:	0a 94       	dec	r0
    1040:	d2 f7       	brpl	.-12     	; 0x1036 <_fpadd_parts+0xc6>
    1042:	21 e0       	ldi	r18, 0x01	; 1
    1044:	30 e0       	ldi	r19, 0x00	; 0
    1046:	40 e0       	ldi	r20, 0x00	; 0
    1048:	50 e0       	ldi	r21, 0x00	; 0
    104a:	04 c0       	rjmp	.+8      	; 0x1054 <_fpadd_parts+0xe4>
    104c:	22 0f       	add	r18, r18
    104e:	33 1f       	adc	r19, r19
    1050:	44 1f       	adc	r20, r20
    1052:	55 1f       	adc	r21, r21
    1054:	6a 95       	dec	r22
    1056:	d2 f7       	brpl	.-12     	; 0x104c <_fpadd_parts+0xdc>
    1058:	21 50       	subi	r18, 0x01	; 1
    105a:	30 40       	sbci	r19, 0x00	; 0
    105c:	40 40       	sbci	r20, 0x00	; 0
    105e:	50 40       	sbci	r21, 0x00	; 0
    1060:	2e 21       	and	r18, r14
    1062:	3f 21       	and	r19, r15
    1064:	40 23       	and	r20, r16
    1066:	51 23       	and	r21, r17
    1068:	21 15       	cp	r18, r1
    106a:	31 05       	cpc	r19, r1
    106c:	41 05       	cpc	r20, r1
    106e:	51 05       	cpc	r21, r1
    1070:	21 f0       	breq	.+8      	; 0x107a <_fpadd_parts+0x10a>
    1072:	21 e0       	ldi	r18, 0x01	; 1
    1074:	30 e0       	ldi	r19, 0x00	; 0
    1076:	40 e0       	ldi	r20, 0x00	; 0
    1078:	50 e0       	ldi	r21, 0x00	; 0
    107a:	79 01       	movw	r14, r18
    107c:	8a 01       	movw	r16, r20
    107e:	e6 28       	or	r14, r6
    1080:	f7 28       	or	r15, r7
    1082:	08 29       	or	r16, r8
    1084:	19 29       	or	r17, r9
    1086:	3c c0       	rjmp	.+120    	; 0x1100 <_fpadd_parts+0x190>
    1088:	23 2b       	or	r18, r19
    108a:	d1 f1       	breq	.+116    	; 0x1100 <_fpadd_parts+0x190>
    108c:	26 0e       	add	r2, r22
    108e:	37 1e       	adc	r3, r23
    1090:	35 01       	movw	r6, r10
    1092:	46 01       	movw	r8, r12
    1094:	06 2e       	mov	r0, r22
    1096:	04 c0       	rjmp	.+8      	; 0x10a0 <_fpadd_parts+0x130>
    1098:	96 94       	lsr	r9
    109a:	87 94       	ror	r8
    109c:	77 94       	ror	r7
    109e:	67 94       	ror	r6
    10a0:	0a 94       	dec	r0
    10a2:	d2 f7       	brpl	.-12     	; 0x1098 <_fpadd_parts+0x128>
    10a4:	21 e0       	ldi	r18, 0x01	; 1
    10a6:	30 e0       	ldi	r19, 0x00	; 0
    10a8:	40 e0       	ldi	r20, 0x00	; 0
    10aa:	50 e0       	ldi	r21, 0x00	; 0
    10ac:	04 c0       	rjmp	.+8      	; 0x10b6 <_fpadd_parts+0x146>
    10ae:	22 0f       	add	r18, r18
    10b0:	33 1f       	adc	r19, r19
    10b2:	44 1f       	adc	r20, r20
    10b4:	55 1f       	adc	r21, r21
    10b6:	6a 95       	dec	r22
    10b8:	d2 f7       	brpl	.-12     	; 0x10ae <_fpadd_parts+0x13e>
    10ba:	21 50       	subi	r18, 0x01	; 1
    10bc:	30 40       	sbci	r19, 0x00	; 0
    10be:	40 40       	sbci	r20, 0x00	; 0
    10c0:	50 40       	sbci	r21, 0x00	; 0
    10c2:	2a 21       	and	r18, r10
    10c4:	3b 21       	and	r19, r11
    10c6:	4c 21       	and	r20, r12
    10c8:	5d 21       	and	r21, r13
    10ca:	21 15       	cp	r18, r1
    10cc:	31 05       	cpc	r19, r1
    10ce:	41 05       	cpc	r20, r1
    10d0:	51 05       	cpc	r21, r1
    10d2:	21 f0       	breq	.+8      	; 0x10dc <_fpadd_parts+0x16c>
    10d4:	21 e0       	ldi	r18, 0x01	; 1
    10d6:	30 e0       	ldi	r19, 0x00	; 0
    10d8:	40 e0       	ldi	r20, 0x00	; 0
    10da:	50 e0       	ldi	r21, 0x00	; 0
    10dc:	59 01       	movw	r10, r18
    10de:	6a 01       	movw	r12, r20
    10e0:	a6 28       	or	r10, r6
    10e2:	b7 28       	or	r11, r7
    10e4:	c8 28       	or	r12, r8
    10e6:	d9 28       	or	r13, r9
    10e8:	0b c0       	rjmp	.+22     	; 0x1100 <_fpadd_parts+0x190>
    10ea:	82 15       	cp	r24, r2
    10ec:	93 05       	cpc	r25, r3
    10ee:	2c f0       	brlt	.+10     	; 0x10fa <_fpadd_parts+0x18a>
    10f0:	1c 01       	movw	r2, r24
    10f2:	aa 24       	eor	r10, r10
    10f4:	bb 24       	eor	r11, r11
    10f6:	65 01       	movw	r12, r10
    10f8:	03 c0       	rjmp	.+6      	; 0x1100 <_fpadd_parts+0x190>
    10fa:	ee 24       	eor	r14, r14
    10fc:	ff 24       	eor	r15, r15
    10fe:	87 01       	movw	r16, r14
    1100:	11 96       	adiw	r26, 0x01	; 1
    1102:	9c 91       	ld	r25, X
    1104:	d2 01       	movw	r26, r4
    1106:	11 96       	adiw	r26, 0x01	; 1
    1108:	8c 91       	ld	r24, X
    110a:	98 17       	cp	r25, r24
    110c:	09 f4       	brne	.+2      	; 0x1110 <_fpadd_parts+0x1a0>
    110e:	45 c0       	rjmp	.+138    	; 0x119a <_fpadd_parts+0x22a>
    1110:	99 23       	and	r25, r25
    1112:	39 f0       	breq	.+14     	; 0x1122 <_fpadd_parts+0x1b2>
    1114:	a8 01       	movw	r20, r16
    1116:	97 01       	movw	r18, r14
    1118:	2a 19       	sub	r18, r10
    111a:	3b 09       	sbc	r19, r11
    111c:	4c 09       	sbc	r20, r12
    111e:	5d 09       	sbc	r21, r13
    1120:	06 c0       	rjmp	.+12     	; 0x112e <_fpadd_parts+0x1be>
    1122:	a6 01       	movw	r20, r12
    1124:	95 01       	movw	r18, r10
    1126:	2e 19       	sub	r18, r14
    1128:	3f 09       	sbc	r19, r15
    112a:	40 0b       	sbc	r20, r16
    112c:	51 0b       	sbc	r21, r17
    112e:	57 fd       	sbrc	r21, 7
    1130:	08 c0       	rjmp	.+16     	; 0x1142 <_fpadd_parts+0x1d2>
    1132:	11 82       	std	Z+1, r1	; 0x01
    1134:	33 82       	std	Z+3, r3	; 0x03
    1136:	22 82       	std	Z+2, r2	; 0x02
    1138:	24 83       	std	Z+4, r18	; 0x04
    113a:	35 83       	std	Z+5, r19	; 0x05
    113c:	46 83       	std	Z+6, r20	; 0x06
    113e:	57 83       	std	Z+7, r21	; 0x07
    1140:	1d c0       	rjmp	.+58     	; 0x117c <_fpadd_parts+0x20c>
    1142:	81 e0       	ldi	r24, 0x01	; 1
    1144:	81 83       	std	Z+1, r24	; 0x01
    1146:	33 82       	std	Z+3, r3	; 0x03
    1148:	22 82       	std	Z+2, r2	; 0x02
    114a:	88 27       	eor	r24, r24
    114c:	99 27       	eor	r25, r25
    114e:	dc 01       	movw	r26, r24
    1150:	82 1b       	sub	r24, r18
    1152:	93 0b       	sbc	r25, r19
    1154:	a4 0b       	sbc	r26, r20
    1156:	b5 0b       	sbc	r27, r21
    1158:	84 83       	std	Z+4, r24	; 0x04
    115a:	95 83       	std	Z+5, r25	; 0x05
    115c:	a6 83       	std	Z+6, r26	; 0x06
    115e:	b7 83       	std	Z+7, r27	; 0x07
    1160:	0d c0       	rjmp	.+26     	; 0x117c <_fpadd_parts+0x20c>
    1162:	22 0f       	add	r18, r18
    1164:	33 1f       	adc	r19, r19
    1166:	44 1f       	adc	r20, r20
    1168:	55 1f       	adc	r21, r21
    116a:	24 83       	std	Z+4, r18	; 0x04
    116c:	35 83       	std	Z+5, r19	; 0x05
    116e:	46 83       	std	Z+6, r20	; 0x06
    1170:	57 83       	std	Z+7, r21	; 0x07
    1172:	82 81       	ldd	r24, Z+2	; 0x02
    1174:	93 81       	ldd	r25, Z+3	; 0x03
    1176:	01 97       	sbiw	r24, 0x01	; 1
    1178:	93 83       	std	Z+3, r25	; 0x03
    117a:	82 83       	std	Z+2, r24	; 0x02
    117c:	24 81       	ldd	r18, Z+4	; 0x04
    117e:	35 81       	ldd	r19, Z+5	; 0x05
    1180:	46 81       	ldd	r20, Z+6	; 0x06
    1182:	57 81       	ldd	r21, Z+7	; 0x07
    1184:	da 01       	movw	r26, r20
    1186:	c9 01       	movw	r24, r18
    1188:	01 97       	sbiw	r24, 0x01	; 1
    118a:	a1 09       	sbc	r26, r1
    118c:	b1 09       	sbc	r27, r1
    118e:	8f 5f       	subi	r24, 0xFF	; 255
    1190:	9f 4f       	sbci	r25, 0xFF	; 255
    1192:	af 4f       	sbci	r26, 0xFF	; 255
    1194:	bf 43       	sbci	r27, 0x3F	; 63
    1196:	28 f3       	brcs	.-54     	; 0x1162 <_fpadd_parts+0x1f2>
    1198:	0b c0       	rjmp	.+22     	; 0x11b0 <_fpadd_parts+0x240>
    119a:	91 83       	std	Z+1, r25	; 0x01
    119c:	33 82       	std	Z+3, r3	; 0x03
    119e:	22 82       	std	Z+2, r2	; 0x02
    11a0:	ea 0c       	add	r14, r10
    11a2:	fb 1c       	adc	r15, r11
    11a4:	0c 1d       	adc	r16, r12
    11a6:	1d 1d       	adc	r17, r13
    11a8:	e4 82       	std	Z+4, r14	; 0x04
    11aa:	f5 82       	std	Z+5, r15	; 0x05
    11ac:	06 83       	std	Z+6, r16	; 0x06
    11ae:	17 83       	std	Z+7, r17	; 0x07
    11b0:	83 e0       	ldi	r24, 0x03	; 3
    11b2:	80 83       	st	Z, r24
    11b4:	24 81       	ldd	r18, Z+4	; 0x04
    11b6:	35 81       	ldd	r19, Z+5	; 0x05
    11b8:	46 81       	ldd	r20, Z+6	; 0x06
    11ba:	57 81       	ldd	r21, Z+7	; 0x07
    11bc:	57 ff       	sbrs	r21, 7
    11be:	1a c0       	rjmp	.+52     	; 0x11f4 <_fpadd_parts+0x284>
    11c0:	c9 01       	movw	r24, r18
    11c2:	aa 27       	eor	r26, r26
    11c4:	97 fd       	sbrc	r25, 7
    11c6:	a0 95       	com	r26
    11c8:	ba 2f       	mov	r27, r26
    11ca:	81 70       	andi	r24, 0x01	; 1
    11cc:	90 70       	andi	r25, 0x00	; 0
    11ce:	a0 70       	andi	r26, 0x00	; 0
    11d0:	b0 70       	andi	r27, 0x00	; 0
    11d2:	56 95       	lsr	r21
    11d4:	47 95       	ror	r20
    11d6:	37 95       	ror	r19
    11d8:	27 95       	ror	r18
    11da:	82 2b       	or	r24, r18
    11dc:	93 2b       	or	r25, r19
    11de:	a4 2b       	or	r26, r20
    11e0:	b5 2b       	or	r27, r21
    11e2:	84 83       	std	Z+4, r24	; 0x04
    11e4:	95 83       	std	Z+5, r25	; 0x05
    11e6:	a6 83       	std	Z+6, r26	; 0x06
    11e8:	b7 83       	std	Z+7, r27	; 0x07
    11ea:	82 81       	ldd	r24, Z+2	; 0x02
    11ec:	93 81       	ldd	r25, Z+3	; 0x03
    11ee:	01 96       	adiw	r24, 0x01	; 1
    11f0:	93 83       	std	Z+3, r25	; 0x03
    11f2:	82 83       	std	Z+2, r24	; 0x02
    11f4:	df 01       	movw	r26, r30
    11f6:	01 c0       	rjmp	.+2      	; 0x11fa <_fpadd_parts+0x28a>
    11f8:	d2 01       	movw	r26, r4
    11fa:	cd 01       	movw	r24, r26
    11fc:	cd b7       	in	r28, 0x3d	; 61
    11fe:	de b7       	in	r29, 0x3e	; 62
    1200:	e2 e1       	ldi	r30, 0x12	; 18
    1202:	6a c5       	rjmp	.+2772   	; 0x1cd8 <__epilogue_restores__>

00001204 <__subsf3>:
    1204:	a0 e2       	ldi	r26, 0x20	; 32
    1206:	b0 e0       	ldi	r27, 0x00	; 0
    1208:	e7 e0       	ldi	r30, 0x07	; 7
    120a:	f9 e0       	ldi	r31, 0x09	; 9
    120c:	55 c5       	rjmp	.+2730   	; 0x1cb8 <__prologue_saves__+0x18>
    120e:	69 83       	std	Y+1, r22	; 0x01
    1210:	7a 83       	std	Y+2, r23	; 0x02
    1212:	8b 83       	std	Y+3, r24	; 0x03
    1214:	9c 83       	std	Y+4, r25	; 0x04
    1216:	2d 83       	std	Y+5, r18	; 0x05
    1218:	3e 83       	std	Y+6, r19	; 0x06
    121a:	4f 83       	std	Y+7, r20	; 0x07
    121c:	58 87       	std	Y+8, r21	; 0x08
    121e:	e9 e0       	ldi	r30, 0x09	; 9
    1220:	ee 2e       	mov	r14, r30
    1222:	f1 2c       	mov	r15, r1
    1224:	ec 0e       	add	r14, r28
    1226:	fd 1e       	adc	r15, r29
    1228:	ce 01       	movw	r24, r28
    122a:	01 96       	adiw	r24, 0x01	; 1
    122c:	b7 01       	movw	r22, r14
    122e:	53 d4       	rcall	.+2214   	; 0x1ad6 <__unpack_f>
    1230:	8e 01       	movw	r16, r28
    1232:	0f 5e       	subi	r16, 0xEF	; 239
    1234:	1f 4f       	sbci	r17, 0xFF	; 255
    1236:	ce 01       	movw	r24, r28
    1238:	05 96       	adiw	r24, 0x05	; 5
    123a:	b8 01       	movw	r22, r16
    123c:	4c d4       	rcall	.+2200   	; 0x1ad6 <__unpack_f>
    123e:	8a 89       	ldd	r24, Y+18	; 0x12
    1240:	91 e0       	ldi	r25, 0x01	; 1
    1242:	89 27       	eor	r24, r25
    1244:	8a 8b       	std	Y+18, r24	; 0x12
    1246:	c7 01       	movw	r24, r14
    1248:	b8 01       	movw	r22, r16
    124a:	ae 01       	movw	r20, r28
    124c:	47 5e       	subi	r20, 0xE7	; 231
    124e:	5f 4f       	sbci	r21, 0xFF	; 255
    1250:	8f de       	rcall	.-738    	; 0xf70 <_fpadd_parts>
    1252:	6c d3       	rcall	.+1752   	; 0x192c <__pack_f>
    1254:	a0 96       	adiw	r28, 0x20	; 32
    1256:	e6 e0       	ldi	r30, 0x06	; 6
    1258:	4b c5       	rjmp	.+2710   	; 0x1cf0 <__epilogue_restores__+0x18>

0000125a <__addsf3>:
    125a:	a0 e2       	ldi	r26, 0x20	; 32
    125c:	b0 e0       	ldi	r27, 0x00	; 0
    125e:	e2 e3       	ldi	r30, 0x32	; 50
    1260:	f9 e0       	ldi	r31, 0x09	; 9
    1262:	2a c5       	rjmp	.+2644   	; 0x1cb8 <__prologue_saves__+0x18>
    1264:	69 83       	std	Y+1, r22	; 0x01
    1266:	7a 83       	std	Y+2, r23	; 0x02
    1268:	8b 83       	std	Y+3, r24	; 0x03
    126a:	9c 83       	std	Y+4, r25	; 0x04
    126c:	2d 83       	std	Y+5, r18	; 0x05
    126e:	3e 83       	std	Y+6, r19	; 0x06
    1270:	4f 83       	std	Y+7, r20	; 0x07
    1272:	58 87       	std	Y+8, r21	; 0x08
    1274:	f9 e0       	ldi	r31, 0x09	; 9
    1276:	ef 2e       	mov	r14, r31
    1278:	f1 2c       	mov	r15, r1
    127a:	ec 0e       	add	r14, r28
    127c:	fd 1e       	adc	r15, r29
    127e:	ce 01       	movw	r24, r28
    1280:	01 96       	adiw	r24, 0x01	; 1
    1282:	b7 01       	movw	r22, r14
    1284:	28 d4       	rcall	.+2128   	; 0x1ad6 <__unpack_f>
    1286:	8e 01       	movw	r16, r28
    1288:	0f 5e       	subi	r16, 0xEF	; 239
    128a:	1f 4f       	sbci	r17, 0xFF	; 255
    128c:	ce 01       	movw	r24, r28
    128e:	05 96       	adiw	r24, 0x05	; 5
    1290:	b8 01       	movw	r22, r16
    1292:	21 d4       	rcall	.+2114   	; 0x1ad6 <__unpack_f>
    1294:	c7 01       	movw	r24, r14
    1296:	b8 01       	movw	r22, r16
    1298:	ae 01       	movw	r20, r28
    129a:	47 5e       	subi	r20, 0xE7	; 231
    129c:	5f 4f       	sbci	r21, 0xFF	; 255
    129e:	68 de       	rcall	.-816    	; 0xf70 <_fpadd_parts>
    12a0:	45 d3       	rcall	.+1674   	; 0x192c <__pack_f>
    12a2:	a0 96       	adiw	r28, 0x20	; 32
    12a4:	e6 e0       	ldi	r30, 0x06	; 6
    12a6:	24 c5       	rjmp	.+2632   	; 0x1cf0 <__epilogue_restores__+0x18>

000012a8 <__mulsf3>:
    12a8:	a0 e2       	ldi	r26, 0x20	; 32
    12aa:	b0 e0       	ldi	r27, 0x00	; 0
    12ac:	e9 e5       	ldi	r30, 0x59	; 89
    12ae:	f9 e0       	ldi	r31, 0x09	; 9
    12b0:	f7 c4       	rjmp	.+2542   	; 0x1ca0 <__prologue_saves__>
    12b2:	69 83       	std	Y+1, r22	; 0x01
    12b4:	7a 83       	std	Y+2, r23	; 0x02
    12b6:	8b 83       	std	Y+3, r24	; 0x03
    12b8:	9c 83       	std	Y+4, r25	; 0x04
    12ba:	2d 83       	std	Y+5, r18	; 0x05
    12bc:	3e 83       	std	Y+6, r19	; 0x06
    12be:	4f 83       	std	Y+7, r20	; 0x07
    12c0:	58 87       	std	Y+8, r21	; 0x08
    12c2:	ce 01       	movw	r24, r28
    12c4:	01 96       	adiw	r24, 0x01	; 1
    12c6:	be 01       	movw	r22, r28
    12c8:	67 5f       	subi	r22, 0xF7	; 247
    12ca:	7f 4f       	sbci	r23, 0xFF	; 255
    12cc:	04 d4       	rcall	.+2056   	; 0x1ad6 <__unpack_f>
    12ce:	ce 01       	movw	r24, r28
    12d0:	05 96       	adiw	r24, 0x05	; 5
    12d2:	be 01       	movw	r22, r28
    12d4:	6f 5e       	subi	r22, 0xEF	; 239
    12d6:	7f 4f       	sbci	r23, 0xFF	; 255
    12d8:	fe d3       	rcall	.+2044   	; 0x1ad6 <__unpack_f>
    12da:	99 85       	ldd	r25, Y+9	; 0x09
    12dc:	92 30       	cpi	r25, 0x02	; 2
    12de:	88 f0       	brcs	.+34     	; 0x1302 <__mulsf3+0x5a>
    12e0:	89 89       	ldd	r24, Y+17	; 0x11
    12e2:	82 30       	cpi	r24, 0x02	; 2
    12e4:	c8 f0       	brcs	.+50     	; 0x1318 <__mulsf3+0x70>
    12e6:	94 30       	cpi	r25, 0x04	; 4
    12e8:	19 f4       	brne	.+6      	; 0x12f0 <__mulsf3+0x48>
    12ea:	82 30       	cpi	r24, 0x02	; 2
    12ec:	51 f4       	brne	.+20     	; 0x1302 <__mulsf3+0x5a>
    12ee:	04 c0       	rjmp	.+8      	; 0x12f8 <__mulsf3+0x50>
    12f0:	84 30       	cpi	r24, 0x04	; 4
    12f2:	29 f4       	brne	.+10     	; 0x12fe <__mulsf3+0x56>
    12f4:	92 30       	cpi	r25, 0x02	; 2
    12f6:	81 f4       	brne	.+32     	; 0x1318 <__mulsf3+0x70>
    12f8:	84 ec       	ldi	r24, 0xC4	; 196
    12fa:	90 e0       	ldi	r25, 0x00	; 0
    12fc:	c6 c0       	rjmp	.+396    	; 0x148a <__mulsf3+0x1e2>
    12fe:	92 30       	cpi	r25, 0x02	; 2
    1300:	49 f4       	brne	.+18     	; 0x1314 <__mulsf3+0x6c>
    1302:	20 e0       	ldi	r18, 0x00	; 0
    1304:	9a 85       	ldd	r25, Y+10	; 0x0a
    1306:	8a 89       	ldd	r24, Y+18	; 0x12
    1308:	98 13       	cpse	r25, r24
    130a:	21 e0       	ldi	r18, 0x01	; 1
    130c:	2a 87       	std	Y+10, r18	; 0x0a
    130e:	ce 01       	movw	r24, r28
    1310:	09 96       	adiw	r24, 0x09	; 9
    1312:	bb c0       	rjmp	.+374    	; 0x148a <__mulsf3+0x1e2>
    1314:	82 30       	cpi	r24, 0x02	; 2
    1316:	49 f4       	brne	.+18     	; 0x132a <__mulsf3+0x82>
    1318:	20 e0       	ldi	r18, 0x00	; 0
    131a:	9a 85       	ldd	r25, Y+10	; 0x0a
    131c:	8a 89       	ldd	r24, Y+18	; 0x12
    131e:	98 13       	cpse	r25, r24
    1320:	21 e0       	ldi	r18, 0x01	; 1
    1322:	2a 8b       	std	Y+18, r18	; 0x12
    1324:	ce 01       	movw	r24, r28
    1326:	41 96       	adiw	r24, 0x11	; 17
    1328:	b0 c0       	rjmp	.+352    	; 0x148a <__mulsf3+0x1e2>
    132a:	2d 84       	ldd	r2, Y+13	; 0x0d
    132c:	3e 84       	ldd	r3, Y+14	; 0x0e
    132e:	4f 84       	ldd	r4, Y+15	; 0x0f
    1330:	58 88       	ldd	r5, Y+16	; 0x10
    1332:	6d 88       	ldd	r6, Y+21	; 0x15
    1334:	7e 88       	ldd	r7, Y+22	; 0x16
    1336:	8f 88       	ldd	r8, Y+23	; 0x17
    1338:	98 8c       	ldd	r9, Y+24	; 0x18
    133a:	ee 24       	eor	r14, r14
    133c:	ff 24       	eor	r15, r15
    133e:	87 01       	movw	r16, r14
    1340:	aa 24       	eor	r10, r10
    1342:	bb 24       	eor	r11, r11
    1344:	65 01       	movw	r12, r10
    1346:	40 e0       	ldi	r20, 0x00	; 0
    1348:	50 e0       	ldi	r21, 0x00	; 0
    134a:	60 e0       	ldi	r22, 0x00	; 0
    134c:	70 e0       	ldi	r23, 0x00	; 0
    134e:	e0 e0       	ldi	r30, 0x00	; 0
    1350:	f0 e0       	ldi	r31, 0x00	; 0
    1352:	c1 01       	movw	r24, r2
    1354:	81 70       	andi	r24, 0x01	; 1
    1356:	90 70       	andi	r25, 0x00	; 0
    1358:	89 2b       	or	r24, r25
    135a:	e9 f0       	breq	.+58     	; 0x1396 <__mulsf3+0xee>
    135c:	e6 0c       	add	r14, r6
    135e:	f7 1c       	adc	r15, r7
    1360:	08 1d       	adc	r16, r8
    1362:	19 1d       	adc	r17, r9
    1364:	9a 01       	movw	r18, r20
    1366:	ab 01       	movw	r20, r22
    1368:	2a 0d       	add	r18, r10
    136a:	3b 1d       	adc	r19, r11
    136c:	4c 1d       	adc	r20, r12
    136e:	5d 1d       	adc	r21, r13
    1370:	80 e0       	ldi	r24, 0x00	; 0
    1372:	90 e0       	ldi	r25, 0x00	; 0
    1374:	a0 e0       	ldi	r26, 0x00	; 0
    1376:	b0 e0       	ldi	r27, 0x00	; 0
    1378:	e6 14       	cp	r14, r6
    137a:	f7 04       	cpc	r15, r7
    137c:	08 05       	cpc	r16, r8
    137e:	19 05       	cpc	r17, r9
    1380:	20 f4       	brcc	.+8      	; 0x138a <__mulsf3+0xe2>
    1382:	81 e0       	ldi	r24, 0x01	; 1
    1384:	90 e0       	ldi	r25, 0x00	; 0
    1386:	a0 e0       	ldi	r26, 0x00	; 0
    1388:	b0 e0       	ldi	r27, 0x00	; 0
    138a:	ba 01       	movw	r22, r20
    138c:	a9 01       	movw	r20, r18
    138e:	48 0f       	add	r20, r24
    1390:	59 1f       	adc	r21, r25
    1392:	6a 1f       	adc	r22, r26
    1394:	7b 1f       	adc	r23, r27
    1396:	aa 0c       	add	r10, r10
    1398:	bb 1c       	adc	r11, r11
    139a:	cc 1c       	adc	r12, r12
    139c:	dd 1c       	adc	r13, r13
    139e:	97 fe       	sbrs	r9, 7
    13a0:	08 c0       	rjmp	.+16     	; 0x13b2 <__mulsf3+0x10a>
    13a2:	81 e0       	ldi	r24, 0x01	; 1
    13a4:	90 e0       	ldi	r25, 0x00	; 0
    13a6:	a0 e0       	ldi	r26, 0x00	; 0
    13a8:	b0 e0       	ldi	r27, 0x00	; 0
    13aa:	a8 2a       	or	r10, r24
    13ac:	b9 2a       	or	r11, r25
    13ae:	ca 2a       	or	r12, r26
    13b0:	db 2a       	or	r13, r27
    13b2:	31 96       	adiw	r30, 0x01	; 1
    13b4:	e0 32       	cpi	r30, 0x20	; 32
    13b6:	f1 05       	cpc	r31, r1
    13b8:	49 f0       	breq	.+18     	; 0x13cc <__mulsf3+0x124>
    13ba:	66 0c       	add	r6, r6
    13bc:	77 1c       	adc	r7, r7
    13be:	88 1c       	adc	r8, r8
    13c0:	99 1c       	adc	r9, r9
    13c2:	56 94       	lsr	r5
    13c4:	47 94       	ror	r4
    13c6:	37 94       	ror	r3
    13c8:	27 94       	ror	r2
    13ca:	c3 cf       	rjmp	.-122    	; 0x1352 <__mulsf3+0xaa>
    13cc:	fa 85       	ldd	r31, Y+10	; 0x0a
    13ce:	ea 89       	ldd	r30, Y+18	; 0x12
    13d0:	2b 89       	ldd	r18, Y+19	; 0x13
    13d2:	3c 89       	ldd	r19, Y+20	; 0x14
    13d4:	8b 85       	ldd	r24, Y+11	; 0x0b
    13d6:	9c 85       	ldd	r25, Y+12	; 0x0c
    13d8:	28 0f       	add	r18, r24
    13da:	39 1f       	adc	r19, r25
    13dc:	2e 5f       	subi	r18, 0xFE	; 254
    13de:	3f 4f       	sbci	r19, 0xFF	; 255
    13e0:	17 c0       	rjmp	.+46     	; 0x1410 <__mulsf3+0x168>
    13e2:	ca 01       	movw	r24, r20
    13e4:	81 70       	andi	r24, 0x01	; 1
    13e6:	90 70       	andi	r25, 0x00	; 0
    13e8:	89 2b       	or	r24, r25
    13ea:	61 f0       	breq	.+24     	; 0x1404 <__mulsf3+0x15c>
    13ec:	16 95       	lsr	r17
    13ee:	07 95       	ror	r16
    13f0:	f7 94       	ror	r15
    13f2:	e7 94       	ror	r14
    13f4:	80 e0       	ldi	r24, 0x00	; 0
    13f6:	90 e0       	ldi	r25, 0x00	; 0
    13f8:	a0 e0       	ldi	r26, 0x00	; 0
    13fa:	b0 e8       	ldi	r27, 0x80	; 128
    13fc:	e8 2a       	or	r14, r24
    13fe:	f9 2a       	or	r15, r25
    1400:	0a 2b       	or	r16, r26
    1402:	1b 2b       	or	r17, r27
    1404:	76 95       	lsr	r23
    1406:	67 95       	ror	r22
    1408:	57 95       	ror	r21
    140a:	47 95       	ror	r20
    140c:	2f 5f       	subi	r18, 0xFF	; 255
    140e:	3f 4f       	sbci	r19, 0xFF	; 255
    1410:	77 fd       	sbrc	r23, 7
    1412:	e7 cf       	rjmp	.-50     	; 0x13e2 <__mulsf3+0x13a>
    1414:	0c c0       	rjmp	.+24     	; 0x142e <__mulsf3+0x186>
    1416:	44 0f       	add	r20, r20
    1418:	55 1f       	adc	r21, r21
    141a:	66 1f       	adc	r22, r22
    141c:	77 1f       	adc	r23, r23
    141e:	17 fd       	sbrc	r17, 7
    1420:	41 60       	ori	r20, 0x01	; 1
    1422:	ee 0c       	add	r14, r14
    1424:	ff 1c       	adc	r15, r15
    1426:	00 1f       	adc	r16, r16
    1428:	11 1f       	adc	r17, r17
    142a:	21 50       	subi	r18, 0x01	; 1
    142c:	30 40       	sbci	r19, 0x00	; 0
    142e:	40 30       	cpi	r20, 0x00	; 0
    1430:	90 e0       	ldi	r25, 0x00	; 0
    1432:	59 07       	cpc	r21, r25
    1434:	90 e0       	ldi	r25, 0x00	; 0
    1436:	69 07       	cpc	r22, r25
    1438:	90 e4       	ldi	r25, 0x40	; 64
    143a:	79 07       	cpc	r23, r25
    143c:	60 f3       	brcs	.-40     	; 0x1416 <__mulsf3+0x16e>
    143e:	2b 8f       	std	Y+27, r18	; 0x1b
    1440:	3c 8f       	std	Y+28, r19	; 0x1c
    1442:	db 01       	movw	r26, r22
    1444:	ca 01       	movw	r24, r20
    1446:	8f 77       	andi	r24, 0x7F	; 127
    1448:	90 70       	andi	r25, 0x00	; 0
    144a:	a0 70       	andi	r26, 0x00	; 0
    144c:	b0 70       	andi	r27, 0x00	; 0
    144e:	80 34       	cpi	r24, 0x40	; 64
    1450:	91 05       	cpc	r25, r1
    1452:	a1 05       	cpc	r26, r1
    1454:	b1 05       	cpc	r27, r1
    1456:	61 f4       	brne	.+24     	; 0x1470 <__mulsf3+0x1c8>
    1458:	47 fd       	sbrc	r20, 7
    145a:	0a c0       	rjmp	.+20     	; 0x1470 <__mulsf3+0x1c8>
    145c:	e1 14       	cp	r14, r1
    145e:	f1 04       	cpc	r15, r1
    1460:	01 05       	cpc	r16, r1
    1462:	11 05       	cpc	r17, r1
    1464:	29 f0       	breq	.+10     	; 0x1470 <__mulsf3+0x1c8>
    1466:	40 5c       	subi	r20, 0xC0	; 192
    1468:	5f 4f       	sbci	r21, 0xFF	; 255
    146a:	6f 4f       	sbci	r22, 0xFF	; 255
    146c:	7f 4f       	sbci	r23, 0xFF	; 255
    146e:	40 78       	andi	r20, 0x80	; 128
    1470:	1a 8e       	std	Y+26, r1	; 0x1a
    1472:	fe 17       	cp	r31, r30
    1474:	11 f0       	breq	.+4      	; 0x147a <__mulsf3+0x1d2>
    1476:	81 e0       	ldi	r24, 0x01	; 1
    1478:	8a 8f       	std	Y+26, r24	; 0x1a
    147a:	4d 8f       	std	Y+29, r20	; 0x1d
    147c:	5e 8f       	std	Y+30, r21	; 0x1e
    147e:	6f 8f       	std	Y+31, r22	; 0x1f
    1480:	78 a3       	std	Y+32, r23	; 0x20
    1482:	83 e0       	ldi	r24, 0x03	; 3
    1484:	89 8f       	std	Y+25, r24	; 0x19
    1486:	ce 01       	movw	r24, r28
    1488:	49 96       	adiw	r24, 0x19	; 25
    148a:	50 d2       	rcall	.+1184   	; 0x192c <__pack_f>
    148c:	a0 96       	adiw	r28, 0x20	; 32
    148e:	e2 e1       	ldi	r30, 0x12	; 18
    1490:	23 c4       	rjmp	.+2118   	; 0x1cd8 <__epilogue_restores__>

00001492 <__divsf3>:
    1492:	a8 e1       	ldi	r26, 0x18	; 24
    1494:	b0 e0       	ldi	r27, 0x00	; 0
    1496:	ee e4       	ldi	r30, 0x4E	; 78
    1498:	fa e0       	ldi	r31, 0x0A	; 10
    149a:	0a c4       	rjmp	.+2068   	; 0x1cb0 <__prologue_saves__+0x10>
    149c:	69 83       	std	Y+1, r22	; 0x01
    149e:	7a 83       	std	Y+2, r23	; 0x02
    14a0:	8b 83       	std	Y+3, r24	; 0x03
    14a2:	9c 83       	std	Y+4, r25	; 0x04
    14a4:	2d 83       	std	Y+5, r18	; 0x05
    14a6:	3e 83       	std	Y+6, r19	; 0x06
    14a8:	4f 83       	std	Y+7, r20	; 0x07
    14aa:	58 87       	std	Y+8, r21	; 0x08
    14ac:	b9 e0       	ldi	r27, 0x09	; 9
    14ae:	eb 2e       	mov	r14, r27
    14b0:	f1 2c       	mov	r15, r1
    14b2:	ec 0e       	add	r14, r28
    14b4:	fd 1e       	adc	r15, r29
    14b6:	ce 01       	movw	r24, r28
    14b8:	01 96       	adiw	r24, 0x01	; 1
    14ba:	b7 01       	movw	r22, r14
    14bc:	0c d3       	rcall	.+1560   	; 0x1ad6 <__unpack_f>
    14be:	8e 01       	movw	r16, r28
    14c0:	0f 5e       	subi	r16, 0xEF	; 239
    14c2:	1f 4f       	sbci	r17, 0xFF	; 255
    14c4:	ce 01       	movw	r24, r28
    14c6:	05 96       	adiw	r24, 0x05	; 5
    14c8:	b8 01       	movw	r22, r16
    14ca:	05 d3       	rcall	.+1546   	; 0x1ad6 <__unpack_f>
    14cc:	29 85       	ldd	r18, Y+9	; 0x09
    14ce:	22 30       	cpi	r18, 0x02	; 2
    14d0:	08 f4       	brcc	.+2      	; 0x14d4 <__divsf3+0x42>
    14d2:	7e c0       	rjmp	.+252    	; 0x15d0 <__divsf3+0x13e>
    14d4:	39 89       	ldd	r19, Y+17	; 0x11
    14d6:	32 30       	cpi	r19, 0x02	; 2
    14d8:	10 f4       	brcc	.+4      	; 0x14de <__divsf3+0x4c>
    14da:	b8 01       	movw	r22, r16
    14dc:	7c c0       	rjmp	.+248    	; 0x15d6 <__divsf3+0x144>
    14de:	8a 85       	ldd	r24, Y+10	; 0x0a
    14e0:	9a 89       	ldd	r25, Y+18	; 0x12
    14e2:	89 27       	eor	r24, r25
    14e4:	8a 87       	std	Y+10, r24	; 0x0a
    14e6:	24 30       	cpi	r18, 0x04	; 4
    14e8:	11 f0       	breq	.+4      	; 0x14ee <__divsf3+0x5c>
    14ea:	22 30       	cpi	r18, 0x02	; 2
    14ec:	31 f4       	brne	.+12     	; 0x14fa <__divsf3+0x68>
    14ee:	23 17       	cp	r18, r19
    14f0:	09 f0       	breq	.+2      	; 0x14f4 <__divsf3+0x62>
    14f2:	6e c0       	rjmp	.+220    	; 0x15d0 <__divsf3+0x13e>
    14f4:	64 ec       	ldi	r22, 0xC4	; 196
    14f6:	70 e0       	ldi	r23, 0x00	; 0
    14f8:	6e c0       	rjmp	.+220    	; 0x15d6 <__divsf3+0x144>
    14fa:	34 30       	cpi	r19, 0x04	; 4
    14fc:	39 f4       	brne	.+14     	; 0x150c <__divsf3+0x7a>
    14fe:	1d 86       	std	Y+13, r1	; 0x0d
    1500:	1e 86       	std	Y+14, r1	; 0x0e
    1502:	1f 86       	std	Y+15, r1	; 0x0f
    1504:	18 8a       	std	Y+16, r1	; 0x10
    1506:	1c 86       	std	Y+12, r1	; 0x0c
    1508:	1b 86       	std	Y+11, r1	; 0x0b
    150a:	04 c0       	rjmp	.+8      	; 0x1514 <__divsf3+0x82>
    150c:	32 30       	cpi	r19, 0x02	; 2
    150e:	21 f4       	brne	.+8      	; 0x1518 <__divsf3+0x86>
    1510:	84 e0       	ldi	r24, 0x04	; 4
    1512:	89 87       	std	Y+9, r24	; 0x09
    1514:	b7 01       	movw	r22, r14
    1516:	5f c0       	rjmp	.+190    	; 0x15d6 <__divsf3+0x144>
    1518:	2b 85       	ldd	r18, Y+11	; 0x0b
    151a:	3c 85       	ldd	r19, Y+12	; 0x0c
    151c:	8b 89       	ldd	r24, Y+19	; 0x13
    151e:	9c 89       	ldd	r25, Y+20	; 0x14
    1520:	28 1b       	sub	r18, r24
    1522:	39 0b       	sbc	r19, r25
    1524:	3c 87       	std	Y+12, r19	; 0x0c
    1526:	2b 87       	std	Y+11, r18	; 0x0b
    1528:	ed 84       	ldd	r14, Y+13	; 0x0d
    152a:	fe 84       	ldd	r15, Y+14	; 0x0e
    152c:	0f 85       	ldd	r16, Y+15	; 0x0f
    152e:	18 89       	ldd	r17, Y+16	; 0x10
    1530:	ad 88       	ldd	r10, Y+21	; 0x15
    1532:	be 88       	ldd	r11, Y+22	; 0x16
    1534:	cf 88       	ldd	r12, Y+23	; 0x17
    1536:	d8 8c       	ldd	r13, Y+24	; 0x18
    1538:	ea 14       	cp	r14, r10
    153a:	fb 04       	cpc	r15, r11
    153c:	0c 05       	cpc	r16, r12
    153e:	1d 05       	cpc	r17, r13
    1540:	40 f4       	brcc	.+16     	; 0x1552 <__divsf3+0xc0>
    1542:	ee 0c       	add	r14, r14
    1544:	ff 1c       	adc	r15, r15
    1546:	00 1f       	adc	r16, r16
    1548:	11 1f       	adc	r17, r17
    154a:	21 50       	subi	r18, 0x01	; 1
    154c:	30 40       	sbci	r19, 0x00	; 0
    154e:	3c 87       	std	Y+12, r19	; 0x0c
    1550:	2b 87       	std	Y+11, r18	; 0x0b
    1552:	20 e0       	ldi	r18, 0x00	; 0
    1554:	30 e0       	ldi	r19, 0x00	; 0
    1556:	40 e0       	ldi	r20, 0x00	; 0
    1558:	50 e0       	ldi	r21, 0x00	; 0
    155a:	80 e0       	ldi	r24, 0x00	; 0
    155c:	90 e0       	ldi	r25, 0x00	; 0
    155e:	a0 e0       	ldi	r26, 0x00	; 0
    1560:	b0 e4       	ldi	r27, 0x40	; 64
    1562:	60 e0       	ldi	r22, 0x00	; 0
    1564:	70 e0       	ldi	r23, 0x00	; 0
    1566:	ea 14       	cp	r14, r10
    1568:	fb 04       	cpc	r15, r11
    156a:	0c 05       	cpc	r16, r12
    156c:	1d 05       	cpc	r17, r13
    156e:	40 f0       	brcs	.+16     	; 0x1580 <__divsf3+0xee>
    1570:	28 2b       	or	r18, r24
    1572:	39 2b       	or	r19, r25
    1574:	4a 2b       	or	r20, r26
    1576:	5b 2b       	or	r21, r27
    1578:	ea 18       	sub	r14, r10
    157a:	fb 08       	sbc	r15, r11
    157c:	0c 09       	sbc	r16, r12
    157e:	1d 09       	sbc	r17, r13
    1580:	b6 95       	lsr	r27
    1582:	a7 95       	ror	r26
    1584:	97 95       	ror	r25
    1586:	87 95       	ror	r24
    1588:	ee 0c       	add	r14, r14
    158a:	ff 1c       	adc	r15, r15
    158c:	00 1f       	adc	r16, r16
    158e:	11 1f       	adc	r17, r17
    1590:	6f 5f       	subi	r22, 0xFF	; 255
    1592:	7f 4f       	sbci	r23, 0xFF	; 255
    1594:	6f 31       	cpi	r22, 0x1F	; 31
    1596:	71 05       	cpc	r23, r1
    1598:	31 f7       	brne	.-52     	; 0x1566 <__divsf3+0xd4>
    159a:	da 01       	movw	r26, r20
    159c:	c9 01       	movw	r24, r18
    159e:	8f 77       	andi	r24, 0x7F	; 127
    15a0:	90 70       	andi	r25, 0x00	; 0
    15a2:	a0 70       	andi	r26, 0x00	; 0
    15a4:	b0 70       	andi	r27, 0x00	; 0
    15a6:	80 34       	cpi	r24, 0x40	; 64
    15a8:	91 05       	cpc	r25, r1
    15aa:	a1 05       	cpc	r26, r1
    15ac:	b1 05       	cpc	r27, r1
    15ae:	61 f4       	brne	.+24     	; 0x15c8 <__divsf3+0x136>
    15b0:	27 fd       	sbrc	r18, 7
    15b2:	0a c0       	rjmp	.+20     	; 0x15c8 <__divsf3+0x136>
    15b4:	e1 14       	cp	r14, r1
    15b6:	f1 04       	cpc	r15, r1
    15b8:	01 05       	cpc	r16, r1
    15ba:	11 05       	cpc	r17, r1
    15bc:	29 f0       	breq	.+10     	; 0x15c8 <__divsf3+0x136>
    15be:	20 5c       	subi	r18, 0xC0	; 192
    15c0:	3f 4f       	sbci	r19, 0xFF	; 255
    15c2:	4f 4f       	sbci	r20, 0xFF	; 255
    15c4:	5f 4f       	sbci	r21, 0xFF	; 255
    15c6:	20 78       	andi	r18, 0x80	; 128
    15c8:	2d 87       	std	Y+13, r18	; 0x0d
    15ca:	3e 87       	std	Y+14, r19	; 0x0e
    15cc:	4f 87       	std	Y+15, r20	; 0x0f
    15ce:	58 8b       	std	Y+16, r21	; 0x10
    15d0:	be 01       	movw	r22, r28
    15d2:	67 5f       	subi	r22, 0xF7	; 247
    15d4:	7f 4f       	sbci	r23, 0xFF	; 255
    15d6:	cb 01       	movw	r24, r22
    15d8:	a9 d1       	rcall	.+850    	; 0x192c <__pack_f>
    15da:	68 96       	adiw	r28, 0x18	; 24
    15dc:	ea e0       	ldi	r30, 0x0A	; 10
    15de:	84 c3       	rjmp	.+1800   	; 0x1ce8 <__epilogue_restores__+0x10>

000015e0 <__gtsf2>:
    15e0:	a8 e1       	ldi	r26, 0x18	; 24
    15e2:	b0 e0       	ldi	r27, 0x00	; 0
    15e4:	e5 ef       	ldi	r30, 0xF5	; 245
    15e6:	fa e0       	ldi	r31, 0x0A	; 10
    15e8:	67 c3       	rjmp	.+1742   	; 0x1cb8 <__prologue_saves__+0x18>
    15ea:	69 83       	std	Y+1, r22	; 0x01
    15ec:	7a 83       	std	Y+2, r23	; 0x02
    15ee:	8b 83       	std	Y+3, r24	; 0x03
    15f0:	9c 83       	std	Y+4, r25	; 0x04
    15f2:	2d 83       	std	Y+5, r18	; 0x05
    15f4:	3e 83       	std	Y+6, r19	; 0x06
    15f6:	4f 83       	std	Y+7, r20	; 0x07
    15f8:	58 87       	std	Y+8, r21	; 0x08
    15fa:	89 e0       	ldi	r24, 0x09	; 9
    15fc:	e8 2e       	mov	r14, r24
    15fe:	f1 2c       	mov	r15, r1
    1600:	ec 0e       	add	r14, r28
    1602:	fd 1e       	adc	r15, r29
    1604:	ce 01       	movw	r24, r28
    1606:	01 96       	adiw	r24, 0x01	; 1
    1608:	b7 01       	movw	r22, r14
    160a:	65 d2       	rcall	.+1226   	; 0x1ad6 <__unpack_f>
    160c:	8e 01       	movw	r16, r28
    160e:	0f 5e       	subi	r16, 0xEF	; 239
    1610:	1f 4f       	sbci	r17, 0xFF	; 255
    1612:	ce 01       	movw	r24, r28
    1614:	05 96       	adiw	r24, 0x05	; 5
    1616:	b8 01       	movw	r22, r16
    1618:	5e d2       	rcall	.+1212   	; 0x1ad6 <__unpack_f>
    161a:	89 85       	ldd	r24, Y+9	; 0x09
    161c:	82 30       	cpi	r24, 0x02	; 2
    161e:	38 f0       	brcs	.+14     	; 0x162e <__gtsf2+0x4e>
    1620:	89 89       	ldd	r24, Y+17	; 0x11
    1622:	82 30       	cpi	r24, 0x02	; 2
    1624:	20 f0       	brcs	.+8      	; 0x162e <__gtsf2+0x4e>
    1626:	c7 01       	movw	r24, r14
    1628:	b8 01       	movw	r22, r16
    162a:	cd d2       	rcall	.+1434   	; 0x1bc6 <__fpcmp_parts_f>
    162c:	01 c0       	rjmp	.+2      	; 0x1630 <__gtsf2+0x50>
    162e:	8f ef       	ldi	r24, 0xFF	; 255
    1630:	68 96       	adiw	r28, 0x18	; 24
    1632:	e6 e0       	ldi	r30, 0x06	; 6
    1634:	5d c3       	rjmp	.+1722   	; 0x1cf0 <__epilogue_restores__+0x18>

00001636 <__gesf2>:
    1636:	a8 e1       	ldi	r26, 0x18	; 24
    1638:	b0 e0       	ldi	r27, 0x00	; 0
    163a:	e0 e2       	ldi	r30, 0x20	; 32
    163c:	fb e0       	ldi	r31, 0x0B	; 11
    163e:	3c c3       	rjmp	.+1656   	; 0x1cb8 <__prologue_saves__+0x18>
    1640:	69 83       	std	Y+1, r22	; 0x01
    1642:	7a 83       	std	Y+2, r23	; 0x02
    1644:	8b 83       	std	Y+3, r24	; 0x03
    1646:	9c 83       	std	Y+4, r25	; 0x04
    1648:	2d 83       	std	Y+5, r18	; 0x05
    164a:	3e 83       	std	Y+6, r19	; 0x06
    164c:	4f 83       	std	Y+7, r20	; 0x07
    164e:	58 87       	std	Y+8, r21	; 0x08
    1650:	89 e0       	ldi	r24, 0x09	; 9
    1652:	e8 2e       	mov	r14, r24
    1654:	f1 2c       	mov	r15, r1
    1656:	ec 0e       	add	r14, r28
    1658:	fd 1e       	adc	r15, r29
    165a:	ce 01       	movw	r24, r28
    165c:	01 96       	adiw	r24, 0x01	; 1
    165e:	b7 01       	movw	r22, r14
    1660:	3a d2       	rcall	.+1140   	; 0x1ad6 <__unpack_f>
    1662:	8e 01       	movw	r16, r28
    1664:	0f 5e       	subi	r16, 0xEF	; 239
    1666:	1f 4f       	sbci	r17, 0xFF	; 255
    1668:	ce 01       	movw	r24, r28
    166a:	05 96       	adiw	r24, 0x05	; 5
    166c:	b8 01       	movw	r22, r16
    166e:	33 d2       	rcall	.+1126   	; 0x1ad6 <__unpack_f>
    1670:	89 85       	ldd	r24, Y+9	; 0x09
    1672:	82 30       	cpi	r24, 0x02	; 2
    1674:	38 f0       	brcs	.+14     	; 0x1684 <__gesf2+0x4e>
    1676:	89 89       	ldd	r24, Y+17	; 0x11
    1678:	82 30       	cpi	r24, 0x02	; 2
    167a:	20 f0       	brcs	.+8      	; 0x1684 <__gesf2+0x4e>
    167c:	c7 01       	movw	r24, r14
    167e:	b8 01       	movw	r22, r16
    1680:	a2 d2       	rcall	.+1348   	; 0x1bc6 <__fpcmp_parts_f>
    1682:	01 c0       	rjmp	.+2      	; 0x1686 <__gesf2+0x50>
    1684:	8f ef       	ldi	r24, 0xFF	; 255
    1686:	68 96       	adiw	r28, 0x18	; 24
    1688:	e6 e0       	ldi	r30, 0x06	; 6
    168a:	32 c3       	rjmp	.+1636   	; 0x1cf0 <__epilogue_restores__+0x18>

0000168c <__ltsf2>:
    168c:	a8 e1       	ldi	r26, 0x18	; 24
    168e:	b0 e0       	ldi	r27, 0x00	; 0
    1690:	eb e4       	ldi	r30, 0x4B	; 75
    1692:	fb e0       	ldi	r31, 0x0B	; 11
    1694:	11 c3       	rjmp	.+1570   	; 0x1cb8 <__prologue_saves__+0x18>
    1696:	69 83       	std	Y+1, r22	; 0x01
    1698:	7a 83       	std	Y+2, r23	; 0x02
    169a:	8b 83       	std	Y+3, r24	; 0x03
    169c:	9c 83       	std	Y+4, r25	; 0x04
    169e:	2d 83       	std	Y+5, r18	; 0x05
    16a0:	3e 83       	std	Y+6, r19	; 0x06
    16a2:	4f 83       	std	Y+7, r20	; 0x07
    16a4:	58 87       	std	Y+8, r21	; 0x08
    16a6:	89 e0       	ldi	r24, 0x09	; 9
    16a8:	e8 2e       	mov	r14, r24
    16aa:	f1 2c       	mov	r15, r1
    16ac:	ec 0e       	add	r14, r28
    16ae:	fd 1e       	adc	r15, r29
    16b0:	ce 01       	movw	r24, r28
    16b2:	01 96       	adiw	r24, 0x01	; 1
    16b4:	b7 01       	movw	r22, r14
    16b6:	0f d2       	rcall	.+1054   	; 0x1ad6 <__unpack_f>
    16b8:	8e 01       	movw	r16, r28
    16ba:	0f 5e       	subi	r16, 0xEF	; 239
    16bc:	1f 4f       	sbci	r17, 0xFF	; 255
    16be:	ce 01       	movw	r24, r28
    16c0:	05 96       	adiw	r24, 0x05	; 5
    16c2:	b8 01       	movw	r22, r16
    16c4:	08 d2       	rcall	.+1040   	; 0x1ad6 <__unpack_f>
    16c6:	89 85       	ldd	r24, Y+9	; 0x09
    16c8:	82 30       	cpi	r24, 0x02	; 2
    16ca:	38 f0       	brcs	.+14     	; 0x16da <__ltsf2+0x4e>
    16cc:	89 89       	ldd	r24, Y+17	; 0x11
    16ce:	82 30       	cpi	r24, 0x02	; 2
    16d0:	20 f0       	brcs	.+8      	; 0x16da <__ltsf2+0x4e>
    16d2:	c7 01       	movw	r24, r14
    16d4:	b8 01       	movw	r22, r16
    16d6:	77 d2       	rcall	.+1262   	; 0x1bc6 <__fpcmp_parts_f>
    16d8:	01 c0       	rjmp	.+2      	; 0x16dc <__ltsf2+0x50>
    16da:	81 e0       	ldi	r24, 0x01	; 1
    16dc:	68 96       	adiw	r28, 0x18	; 24
    16de:	e6 e0       	ldi	r30, 0x06	; 6
    16e0:	07 c3       	rjmp	.+1550   	; 0x1cf0 <__epilogue_restores__+0x18>

000016e2 <__lesf2>:
    16e2:	a8 e1       	ldi	r26, 0x18	; 24
    16e4:	b0 e0       	ldi	r27, 0x00	; 0
    16e6:	e6 e7       	ldi	r30, 0x76	; 118
    16e8:	fb e0       	ldi	r31, 0x0B	; 11
    16ea:	e6 c2       	rjmp	.+1484   	; 0x1cb8 <__prologue_saves__+0x18>
    16ec:	69 83       	std	Y+1, r22	; 0x01
    16ee:	7a 83       	std	Y+2, r23	; 0x02
    16f0:	8b 83       	std	Y+3, r24	; 0x03
    16f2:	9c 83       	std	Y+4, r25	; 0x04
    16f4:	2d 83       	std	Y+5, r18	; 0x05
    16f6:	3e 83       	std	Y+6, r19	; 0x06
    16f8:	4f 83       	std	Y+7, r20	; 0x07
    16fa:	58 87       	std	Y+8, r21	; 0x08
    16fc:	89 e0       	ldi	r24, 0x09	; 9
    16fe:	e8 2e       	mov	r14, r24
    1700:	f1 2c       	mov	r15, r1
    1702:	ec 0e       	add	r14, r28
    1704:	fd 1e       	adc	r15, r29
    1706:	ce 01       	movw	r24, r28
    1708:	01 96       	adiw	r24, 0x01	; 1
    170a:	b7 01       	movw	r22, r14
    170c:	e4 d1       	rcall	.+968    	; 0x1ad6 <__unpack_f>
    170e:	8e 01       	movw	r16, r28
    1710:	0f 5e       	subi	r16, 0xEF	; 239
    1712:	1f 4f       	sbci	r17, 0xFF	; 255
    1714:	ce 01       	movw	r24, r28
    1716:	05 96       	adiw	r24, 0x05	; 5
    1718:	b8 01       	movw	r22, r16
    171a:	dd d1       	rcall	.+954    	; 0x1ad6 <__unpack_f>
    171c:	89 85       	ldd	r24, Y+9	; 0x09
    171e:	82 30       	cpi	r24, 0x02	; 2
    1720:	38 f0       	brcs	.+14     	; 0x1730 <__lesf2+0x4e>
    1722:	89 89       	ldd	r24, Y+17	; 0x11
    1724:	82 30       	cpi	r24, 0x02	; 2
    1726:	20 f0       	brcs	.+8      	; 0x1730 <__lesf2+0x4e>
    1728:	c7 01       	movw	r24, r14
    172a:	b8 01       	movw	r22, r16
    172c:	4c d2       	rcall	.+1176   	; 0x1bc6 <__fpcmp_parts_f>
    172e:	01 c0       	rjmp	.+2      	; 0x1732 <__lesf2+0x50>
    1730:	81 e0       	ldi	r24, 0x01	; 1
    1732:	68 96       	adiw	r28, 0x18	; 24
    1734:	e6 e0       	ldi	r30, 0x06	; 6
    1736:	dc c2       	rjmp	.+1464   	; 0x1cf0 <__epilogue_restores__+0x18>

00001738 <__floatsisf>:
    1738:	a8 e0       	ldi	r26, 0x08	; 8
    173a:	b0 e0       	ldi	r27, 0x00	; 0
    173c:	e1 ea       	ldi	r30, 0xA1	; 161
    173e:	fb e0       	ldi	r31, 0x0B	; 11
    1740:	b8 c2       	rjmp	.+1392   	; 0x1cb2 <__prologue_saves__+0x12>
    1742:	9b 01       	movw	r18, r22
    1744:	ac 01       	movw	r20, r24
    1746:	83 e0       	ldi	r24, 0x03	; 3
    1748:	89 83       	std	Y+1, r24	; 0x01
    174a:	da 01       	movw	r26, r20
    174c:	c9 01       	movw	r24, r18
    174e:	88 27       	eor	r24, r24
    1750:	b7 fd       	sbrc	r27, 7
    1752:	83 95       	inc	r24
    1754:	99 27       	eor	r25, r25
    1756:	aa 27       	eor	r26, r26
    1758:	bb 27       	eor	r27, r27
    175a:	b8 2e       	mov	r11, r24
    175c:	21 15       	cp	r18, r1
    175e:	31 05       	cpc	r19, r1
    1760:	41 05       	cpc	r20, r1
    1762:	51 05       	cpc	r21, r1
    1764:	19 f4       	brne	.+6      	; 0x176c <__floatsisf+0x34>
    1766:	82 e0       	ldi	r24, 0x02	; 2
    1768:	89 83       	std	Y+1, r24	; 0x01
    176a:	39 c0       	rjmp	.+114    	; 0x17de <__floatsisf+0xa6>
    176c:	88 23       	and	r24, r24
    176e:	a9 f0       	breq	.+42     	; 0x179a <__floatsisf+0x62>
    1770:	20 30       	cpi	r18, 0x00	; 0
    1772:	80 e0       	ldi	r24, 0x00	; 0
    1774:	38 07       	cpc	r19, r24
    1776:	80 e0       	ldi	r24, 0x00	; 0
    1778:	48 07       	cpc	r20, r24
    177a:	80 e8       	ldi	r24, 0x80	; 128
    177c:	58 07       	cpc	r21, r24
    177e:	29 f4       	brne	.+10     	; 0x178a <__floatsisf+0x52>
    1780:	60 e0       	ldi	r22, 0x00	; 0
    1782:	70 e0       	ldi	r23, 0x00	; 0
    1784:	80 e0       	ldi	r24, 0x00	; 0
    1786:	9f ec       	ldi	r25, 0xCF	; 207
    1788:	2e c0       	rjmp	.+92     	; 0x17e6 <__floatsisf+0xae>
    178a:	ee 24       	eor	r14, r14
    178c:	ff 24       	eor	r15, r15
    178e:	87 01       	movw	r16, r14
    1790:	e2 1a       	sub	r14, r18
    1792:	f3 0a       	sbc	r15, r19
    1794:	04 0b       	sbc	r16, r20
    1796:	15 0b       	sbc	r17, r21
    1798:	02 c0       	rjmp	.+4      	; 0x179e <__floatsisf+0x66>
    179a:	79 01       	movw	r14, r18
    179c:	8a 01       	movw	r16, r20
    179e:	8e e1       	ldi	r24, 0x1E	; 30
    17a0:	c8 2e       	mov	r12, r24
    17a2:	d1 2c       	mov	r13, r1
    17a4:	dc 82       	std	Y+4, r13	; 0x04
    17a6:	cb 82       	std	Y+3, r12	; 0x03
    17a8:	ed 82       	std	Y+5, r14	; 0x05
    17aa:	fe 82       	std	Y+6, r15	; 0x06
    17ac:	0f 83       	std	Y+7, r16	; 0x07
    17ae:	18 87       	std	Y+8, r17	; 0x08
    17b0:	c8 01       	movw	r24, r16
    17b2:	b7 01       	movw	r22, r14
    17b4:	6c d0       	rcall	.+216    	; 0x188e <__clzsi2>
    17b6:	01 97       	sbiw	r24, 0x01	; 1
    17b8:	18 16       	cp	r1, r24
    17ba:	19 06       	cpc	r1, r25
    17bc:	84 f4       	brge	.+32     	; 0x17de <__floatsisf+0xa6>
    17be:	08 2e       	mov	r0, r24
    17c0:	04 c0       	rjmp	.+8      	; 0x17ca <__floatsisf+0x92>
    17c2:	ee 0c       	add	r14, r14
    17c4:	ff 1c       	adc	r15, r15
    17c6:	00 1f       	adc	r16, r16
    17c8:	11 1f       	adc	r17, r17
    17ca:	0a 94       	dec	r0
    17cc:	d2 f7       	brpl	.-12     	; 0x17c2 <__floatsisf+0x8a>
    17ce:	ed 82       	std	Y+5, r14	; 0x05
    17d0:	fe 82       	std	Y+6, r15	; 0x06
    17d2:	0f 83       	std	Y+7, r16	; 0x07
    17d4:	18 87       	std	Y+8, r17	; 0x08
    17d6:	c8 1a       	sub	r12, r24
    17d8:	d9 0a       	sbc	r13, r25
    17da:	dc 82       	std	Y+4, r13	; 0x04
    17dc:	cb 82       	std	Y+3, r12	; 0x03
    17de:	ba 82       	std	Y+2, r11	; 0x02
    17e0:	ce 01       	movw	r24, r28
    17e2:	01 96       	adiw	r24, 0x01	; 1
    17e4:	a3 d0       	rcall	.+326    	; 0x192c <__pack_f>
    17e6:	28 96       	adiw	r28, 0x08	; 8
    17e8:	e9 e0       	ldi	r30, 0x09	; 9
    17ea:	7f c2       	rjmp	.+1278   	; 0x1cea <__epilogue_restores__+0x12>

000017ec <__fixsfsi>:
    17ec:	ac e0       	ldi	r26, 0x0C	; 12
    17ee:	b0 e0       	ldi	r27, 0x00	; 0
    17f0:	eb ef       	ldi	r30, 0xFB	; 251
    17f2:	fb e0       	ldi	r31, 0x0B	; 11
    17f4:	65 c2       	rjmp	.+1226   	; 0x1cc0 <__prologue_saves__+0x20>
    17f6:	69 83       	std	Y+1, r22	; 0x01
    17f8:	7a 83       	std	Y+2, r23	; 0x02
    17fa:	8b 83       	std	Y+3, r24	; 0x03
    17fc:	9c 83       	std	Y+4, r25	; 0x04
    17fe:	ce 01       	movw	r24, r28
    1800:	01 96       	adiw	r24, 0x01	; 1
    1802:	be 01       	movw	r22, r28
    1804:	6b 5f       	subi	r22, 0xFB	; 251
    1806:	7f 4f       	sbci	r23, 0xFF	; 255
    1808:	66 d1       	rcall	.+716    	; 0x1ad6 <__unpack_f>
    180a:	8d 81       	ldd	r24, Y+5	; 0x05
    180c:	82 30       	cpi	r24, 0x02	; 2
    180e:	61 f1       	breq	.+88     	; 0x1868 <__fixsfsi+0x7c>
    1810:	82 30       	cpi	r24, 0x02	; 2
    1812:	50 f1       	brcs	.+84     	; 0x1868 <__fixsfsi+0x7c>
    1814:	84 30       	cpi	r24, 0x04	; 4
    1816:	21 f4       	brne	.+8      	; 0x1820 <__fixsfsi+0x34>
    1818:	8e 81       	ldd	r24, Y+6	; 0x06
    181a:	88 23       	and	r24, r24
    181c:	51 f1       	breq	.+84     	; 0x1872 <__fixsfsi+0x86>
    181e:	2e c0       	rjmp	.+92     	; 0x187c <__fixsfsi+0x90>
    1820:	2f 81       	ldd	r18, Y+7	; 0x07
    1822:	38 85       	ldd	r19, Y+8	; 0x08
    1824:	37 fd       	sbrc	r19, 7
    1826:	20 c0       	rjmp	.+64     	; 0x1868 <__fixsfsi+0x7c>
    1828:	6e 81       	ldd	r22, Y+6	; 0x06
    182a:	2f 31       	cpi	r18, 0x1F	; 31
    182c:	31 05       	cpc	r19, r1
    182e:	1c f0       	brlt	.+6      	; 0x1836 <__fixsfsi+0x4a>
    1830:	66 23       	and	r22, r22
    1832:	f9 f0       	breq	.+62     	; 0x1872 <__fixsfsi+0x86>
    1834:	23 c0       	rjmp	.+70     	; 0x187c <__fixsfsi+0x90>
    1836:	8e e1       	ldi	r24, 0x1E	; 30
    1838:	90 e0       	ldi	r25, 0x00	; 0
    183a:	82 1b       	sub	r24, r18
    183c:	93 0b       	sbc	r25, r19
    183e:	29 85       	ldd	r18, Y+9	; 0x09
    1840:	3a 85       	ldd	r19, Y+10	; 0x0a
    1842:	4b 85       	ldd	r20, Y+11	; 0x0b
    1844:	5c 85       	ldd	r21, Y+12	; 0x0c
    1846:	04 c0       	rjmp	.+8      	; 0x1850 <__fixsfsi+0x64>
    1848:	56 95       	lsr	r21
    184a:	47 95       	ror	r20
    184c:	37 95       	ror	r19
    184e:	27 95       	ror	r18
    1850:	8a 95       	dec	r24
    1852:	d2 f7       	brpl	.-12     	; 0x1848 <__fixsfsi+0x5c>
    1854:	66 23       	and	r22, r22
    1856:	b1 f0       	breq	.+44     	; 0x1884 <__fixsfsi+0x98>
    1858:	50 95       	com	r21
    185a:	40 95       	com	r20
    185c:	30 95       	com	r19
    185e:	21 95       	neg	r18
    1860:	3f 4f       	sbci	r19, 0xFF	; 255
    1862:	4f 4f       	sbci	r20, 0xFF	; 255
    1864:	5f 4f       	sbci	r21, 0xFF	; 255
    1866:	0e c0       	rjmp	.+28     	; 0x1884 <__fixsfsi+0x98>
    1868:	20 e0       	ldi	r18, 0x00	; 0
    186a:	30 e0       	ldi	r19, 0x00	; 0
    186c:	40 e0       	ldi	r20, 0x00	; 0
    186e:	50 e0       	ldi	r21, 0x00	; 0
    1870:	09 c0       	rjmp	.+18     	; 0x1884 <__fixsfsi+0x98>
    1872:	2f ef       	ldi	r18, 0xFF	; 255
    1874:	3f ef       	ldi	r19, 0xFF	; 255
    1876:	4f ef       	ldi	r20, 0xFF	; 255
    1878:	5f e7       	ldi	r21, 0x7F	; 127
    187a:	04 c0       	rjmp	.+8      	; 0x1884 <__fixsfsi+0x98>
    187c:	20 e0       	ldi	r18, 0x00	; 0
    187e:	30 e0       	ldi	r19, 0x00	; 0
    1880:	40 e0       	ldi	r20, 0x00	; 0
    1882:	50 e8       	ldi	r21, 0x80	; 128
    1884:	b9 01       	movw	r22, r18
    1886:	ca 01       	movw	r24, r20
    1888:	2c 96       	adiw	r28, 0x0c	; 12
    188a:	e2 e0       	ldi	r30, 0x02	; 2
    188c:	35 c2       	rjmp	.+1130   	; 0x1cf8 <__epilogue_restores__+0x20>

0000188e <__clzsi2>:
    188e:	ef 92       	push	r14
    1890:	ff 92       	push	r15
    1892:	0f 93       	push	r16
    1894:	1f 93       	push	r17
    1896:	7b 01       	movw	r14, r22
    1898:	8c 01       	movw	r16, r24
    189a:	80 e0       	ldi	r24, 0x00	; 0
    189c:	e8 16       	cp	r14, r24
    189e:	80 e0       	ldi	r24, 0x00	; 0
    18a0:	f8 06       	cpc	r15, r24
    18a2:	81 e0       	ldi	r24, 0x01	; 1
    18a4:	08 07       	cpc	r16, r24
    18a6:	80 e0       	ldi	r24, 0x00	; 0
    18a8:	18 07       	cpc	r17, r24
    18aa:	88 f4       	brcc	.+34     	; 0x18ce <__clzsi2+0x40>
    18ac:	8f ef       	ldi	r24, 0xFF	; 255
    18ae:	e8 16       	cp	r14, r24
    18b0:	f1 04       	cpc	r15, r1
    18b2:	01 05       	cpc	r16, r1
    18b4:	11 05       	cpc	r17, r1
    18b6:	31 f0       	breq	.+12     	; 0x18c4 <__clzsi2+0x36>
    18b8:	28 f0       	brcs	.+10     	; 0x18c4 <__clzsi2+0x36>
    18ba:	88 e0       	ldi	r24, 0x08	; 8
    18bc:	90 e0       	ldi	r25, 0x00	; 0
    18be:	a0 e0       	ldi	r26, 0x00	; 0
    18c0:	b0 e0       	ldi	r27, 0x00	; 0
    18c2:	17 c0       	rjmp	.+46     	; 0x18f2 <__clzsi2+0x64>
    18c4:	80 e0       	ldi	r24, 0x00	; 0
    18c6:	90 e0       	ldi	r25, 0x00	; 0
    18c8:	a0 e0       	ldi	r26, 0x00	; 0
    18ca:	b0 e0       	ldi	r27, 0x00	; 0
    18cc:	12 c0       	rjmp	.+36     	; 0x18f2 <__clzsi2+0x64>
    18ce:	80 e0       	ldi	r24, 0x00	; 0
    18d0:	e8 16       	cp	r14, r24
    18d2:	80 e0       	ldi	r24, 0x00	; 0
    18d4:	f8 06       	cpc	r15, r24
    18d6:	80 e0       	ldi	r24, 0x00	; 0
    18d8:	08 07       	cpc	r16, r24
    18da:	81 e0       	ldi	r24, 0x01	; 1
    18dc:	18 07       	cpc	r17, r24
    18de:	28 f0       	brcs	.+10     	; 0x18ea <__clzsi2+0x5c>
    18e0:	88 e1       	ldi	r24, 0x18	; 24
    18e2:	90 e0       	ldi	r25, 0x00	; 0
    18e4:	a0 e0       	ldi	r26, 0x00	; 0
    18e6:	b0 e0       	ldi	r27, 0x00	; 0
    18e8:	04 c0       	rjmp	.+8      	; 0x18f2 <__clzsi2+0x64>
    18ea:	80 e1       	ldi	r24, 0x10	; 16
    18ec:	90 e0       	ldi	r25, 0x00	; 0
    18ee:	a0 e0       	ldi	r26, 0x00	; 0
    18f0:	b0 e0       	ldi	r27, 0x00	; 0
    18f2:	20 e2       	ldi	r18, 0x20	; 32
    18f4:	30 e0       	ldi	r19, 0x00	; 0
    18f6:	40 e0       	ldi	r20, 0x00	; 0
    18f8:	50 e0       	ldi	r21, 0x00	; 0
    18fa:	28 1b       	sub	r18, r24
    18fc:	39 0b       	sbc	r19, r25
    18fe:	4a 0b       	sbc	r20, r26
    1900:	5b 0b       	sbc	r21, r27
    1902:	04 c0       	rjmp	.+8      	; 0x190c <__clzsi2+0x7e>
    1904:	16 95       	lsr	r17
    1906:	07 95       	ror	r16
    1908:	f7 94       	ror	r15
    190a:	e7 94       	ror	r14
    190c:	8a 95       	dec	r24
    190e:	d2 f7       	brpl	.-12     	; 0x1904 <__clzsi2+0x76>
    1910:	f7 01       	movw	r30, r14
    1912:	e4 53       	subi	r30, 0x34	; 52
    1914:	ff 4f       	sbci	r31, 0xFF	; 255
    1916:	80 81       	ld	r24, Z
    1918:	28 1b       	sub	r18, r24
    191a:	31 09       	sbc	r19, r1
    191c:	41 09       	sbc	r20, r1
    191e:	51 09       	sbc	r21, r1
    1920:	c9 01       	movw	r24, r18
    1922:	1f 91       	pop	r17
    1924:	0f 91       	pop	r16
    1926:	ff 90       	pop	r15
    1928:	ef 90       	pop	r14
    192a:	08 95       	ret

0000192c <__pack_f>:
    192c:	df 92       	push	r13
    192e:	ef 92       	push	r14
    1930:	ff 92       	push	r15
    1932:	0f 93       	push	r16
    1934:	1f 93       	push	r17
    1936:	fc 01       	movw	r30, r24
    1938:	e4 80       	ldd	r14, Z+4	; 0x04
    193a:	f5 80       	ldd	r15, Z+5	; 0x05
    193c:	06 81       	ldd	r16, Z+6	; 0x06
    193e:	17 81       	ldd	r17, Z+7	; 0x07
    1940:	d1 80       	ldd	r13, Z+1	; 0x01
    1942:	80 81       	ld	r24, Z
    1944:	82 30       	cpi	r24, 0x02	; 2
    1946:	48 f4       	brcc	.+18     	; 0x195a <__pack_f+0x2e>
    1948:	80 e0       	ldi	r24, 0x00	; 0
    194a:	90 e0       	ldi	r25, 0x00	; 0
    194c:	a0 e1       	ldi	r26, 0x10	; 16
    194e:	b0 e0       	ldi	r27, 0x00	; 0
    1950:	e8 2a       	or	r14, r24
    1952:	f9 2a       	or	r15, r25
    1954:	0a 2b       	or	r16, r26
    1956:	1b 2b       	or	r17, r27
    1958:	a5 c0       	rjmp	.+330    	; 0x1aa4 <__pack_f+0x178>
    195a:	84 30       	cpi	r24, 0x04	; 4
    195c:	09 f4       	brne	.+2      	; 0x1960 <__pack_f+0x34>
    195e:	9f c0       	rjmp	.+318    	; 0x1a9e <__pack_f+0x172>
    1960:	82 30       	cpi	r24, 0x02	; 2
    1962:	21 f4       	brne	.+8      	; 0x196c <__pack_f+0x40>
    1964:	ee 24       	eor	r14, r14
    1966:	ff 24       	eor	r15, r15
    1968:	87 01       	movw	r16, r14
    196a:	05 c0       	rjmp	.+10     	; 0x1976 <__pack_f+0x4a>
    196c:	e1 14       	cp	r14, r1
    196e:	f1 04       	cpc	r15, r1
    1970:	01 05       	cpc	r16, r1
    1972:	11 05       	cpc	r17, r1
    1974:	19 f4       	brne	.+6      	; 0x197c <__pack_f+0x50>
    1976:	e0 e0       	ldi	r30, 0x00	; 0
    1978:	f0 e0       	ldi	r31, 0x00	; 0
    197a:	96 c0       	rjmp	.+300    	; 0x1aa8 <__pack_f+0x17c>
    197c:	62 81       	ldd	r22, Z+2	; 0x02
    197e:	73 81       	ldd	r23, Z+3	; 0x03
    1980:	9f ef       	ldi	r25, 0xFF	; 255
    1982:	62 38       	cpi	r22, 0x82	; 130
    1984:	79 07       	cpc	r23, r25
    1986:	0c f0       	brlt	.+2      	; 0x198a <__pack_f+0x5e>
    1988:	5b c0       	rjmp	.+182    	; 0x1a40 <__pack_f+0x114>
    198a:	22 e8       	ldi	r18, 0x82	; 130
    198c:	3f ef       	ldi	r19, 0xFF	; 255
    198e:	26 1b       	sub	r18, r22
    1990:	37 0b       	sbc	r19, r23
    1992:	2a 31       	cpi	r18, 0x1A	; 26
    1994:	31 05       	cpc	r19, r1
    1996:	2c f0       	brlt	.+10     	; 0x19a2 <__pack_f+0x76>
    1998:	20 e0       	ldi	r18, 0x00	; 0
    199a:	30 e0       	ldi	r19, 0x00	; 0
    199c:	40 e0       	ldi	r20, 0x00	; 0
    199e:	50 e0       	ldi	r21, 0x00	; 0
    19a0:	2a c0       	rjmp	.+84     	; 0x19f6 <__pack_f+0xca>
    19a2:	b8 01       	movw	r22, r16
    19a4:	a7 01       	movw	r20, r14
    19a6:	02 2e       	mov	r0, r18
    19a8:	04 c0       	rjmp	.+8      	; 0x19b2 <__pack_f+0x86>
    19aa:	76 95       	lsr	r23
    19ac:	67 95       	ror	r22
    19ae:	57 95       	ror	r21
    19b0:	47 95       	ror	r20
    19b2:	0a 94       	dec	r0
    19b4:	d2 f7       	brpl	.-12     	; 0x19aa <__pack_f+0x7e>
    19b6:	81 e0       	ldi	r24, 0x01	; 1
    19b8:	90 e0       	ldi	r25, 0x00	; 0
    19ba:	a0 e0       	ldi	r26, 0x00	; 0
    19bc:	b0 e0       	ldi	r27, 0x00	; 0
    19be:	04 c0       	rjmp	.+8      	; 0x19c8 <__pack_f+0x9c>
    19c0:	88 0f       	add	r24, r24
    19c2:	99 1f       	adc	r25, r25
    19c4:	aa 1f       	adc	r26, r26
    19c6:	bb 1f       	adc	r27, r27
    19c8:	2a 95       	dec	r18
    19ca:	d2 f7       	brpl	.-12     	; 0x19c0 <__pack_f+0x94>
    19cc:	01 97       	sbiw	r24, 0x01	; 1
    19ce:	a1 09       	sbc	r26, r1
    19d0:	b1 09       	sbc	r27, r1
    19d2:	8e 21       	and	r24, r14
    19d4:	9f 21       	and	r25, r15
    19d6:	a0 23       	and	r26, r16
    19d8:	b1 23       	and	r27, r17
    19da:	00 97       	sbiw	r24, 0x00	; 0
    19dc:	a1 05       	cpc	r26, r1
    19de:	b1 05       	cpc	r27, r1
    19e0:	21 f0       	breq	.+8      	; 0x19ea <__pack_f+0xbe>
    19e2:	81 e0       	ldi	r24, 0x01	; 1
    19e4:	90 e0       	ldi	r25, 0x00	; 0
    19e6:	a0 e0       	ldi	r26, 0x00	; 0
    19e8:	b0 e0       	ldi	r27, 0x00	; 0
    19ea:	9a 01       	movw	r18, r20
    19ec:	ab 01       	movw	r20, r22
    19ee:	28 2b       	or	r18, r24
    19f0:	39 2b       	or	r19, r25
    19f2:	4a 2b       	or	r20, r26
    19f4:	5b 2b       	or	r21, r27
    19f6:	da 01       	movw	r26, r20
    19f8:	c9 01       	movw	r24, r18
    19fa:	8f 77       	andi	r24, 0x7F	; 127
    19fc:	90 70       	andi	r25, 0x00	; 0
    19fe:	a0 70       	andi	r26, 0x00	; 0
    1a00:	b0 70       	andi	r27, 0x00	; 0
    1a02:	80 34       	cpi	r24, 0x40	; 64
    1a04:	91 05       	cpc	r25, r1
    1a06:	a1 05       	cpc	r26, r1
    1a08:	b1 05       	cpc	r27, r1
    1a0a:	39 f4       	brne	.+14     	; 0x1a1a <__pack_f+0xee>
    1a0c:	27 ff       	sbrs	r18, 7
    1a0e:	09 c0       	rjmp	.+18     	; 0x1a22 <__pack_f+0xf6>
    1a10:	20 5c       	subi	r18, 0xC0	; 192
    1a12:	3f 4f       	sbci	r19, 0xFF	; 255
    1a14:	4f 4f       	sbci	r20, 0xFF	; 255
    1a16:	5f 4f       	sbci	r21, 0xFF	; 255
    1a18:	04 c0       	rjmp	.+8      	; 0x1a22 <__pack_f+0xf6>
    1a1a:	21 5c       	subi	r18, 0xC1	; 193
    1a1c:	3f 4f       	sbci	r19, 0xFF	; 255
    1a1e:	4f 4f       	sbci	r20, 0xFF	; 255
    1a20:	5f 4f       	sbci	r21, 0xFF	; 255
    1a22:	e0 e0       	ldi	r30, 0x00	; 0
    1a24:	f0 e0       	ldi	r31, 0x00	; 0
    1a26:	20 30       	cpi	r18, 0x00	; 0
    1a28:	a0 e0       	ldi	r26, 0x00	; 0
    1a2a:	3a 07       	cpc	r19, r26
    1a2c:	a0 e0       	ldi	r26, 0x00	; 0
    1a2e:	4a 07       	cpc	r20, r26
    1a30:	a0 e4       	ldi	r26, 0x40	; 64
    1a32:	5a 07       	cpc	r21, r26
    1a34:	10 f0       	brcs	.+4      	; 0x1a3a <__pack_f+0x10e>
    1a36:	e1 e0       	ldi	r30, 0x01	; 1
    1a38:	f0 e0       	ldi	r31, 0x00	; 0
    1a3a:	79 01       	movw	r14, r18
    1a3c:	8a 01       	movw	r16, r20
    1a3e:	27 c0       	rjmp	.+78     	; 0x1a8e <__pack_f+0x162>
    1a40:	60 38       	cpi	r22, 0x80	; 128
    1a42:	71 05       	cpc	r23, r1
    1a44:	64 f5       	brge	.+88     	; 0x1a9e <__pack_f+0x172>
    1a46:	fb 01       	movw	r30, r22
    1a48:	e1 58       	subi	r30, 0x81	; 129
    1a4a:	ff 4f       	sbci	r31, 0xFF	; 255
    1a4c:	d8 01       	movw	r26, r16
    1a4e:	c7 01       	movw	r24, r14
    1a50:	8f 77       	andi	r24, 0x7F	; 127
    1a52:	90 70       	andi	r25, 0x00	; 0
    1a54:	a0 70       	andi	r26, 0x00	; 0
    1a56:	b0 70       	andi	r27, 0x00	; 0
    1a58:	80 34       	cpi	r24, 0x40	; 64
    1a5a:	91 05       	cpc	r25, r1
    1a5c:	a1 05       	cpc	r26, r1
    1a5e:	b1 05       	cpc	r27, r1
    1a60:	39 f4       	brne	.+14     	; 0x1a70 <__pack_f+0x144>
    1a62:	e7 fe       	sbrs	r14, 7
    1a64:	0d c0       	rjmp	.+26     	; 0x1a80 <__pack_f+0x154>
    1a66:	80 e4       	ldi	r24, 0x40	; 64
    1a68:	90 e0       	ldi	r25, 0x00	; 0
    1a6a:	a0 e0       	ldi	r26, 0x00	; 0
    1a6c:	b0 e0       	ldi	r27, 0x00	; 0
    1a6e:	04 c0       	rjmp	.+8      	; 0x1a78 <__pack_f+0x14c>
    1a70:	8f e3       	ldi	r24, 0x3F	; 63
    1a72:	90 e0       	ldi	r25, 0x00	; 0
    1a74:	a0 e0       	ldi	r26, 0x00	; 0
    1a76:	b0 e0       	ldi	r27, 0x00	; 0
    1a78:	e8 0e       	add	r14, r24
    1a7a:	f9 1e       	adc	r15, r25
    1a7c:	0a 1f       	adc	r16, r26
    1a7e:	1b 1f       	adc	r17, r27
    1a80:	17 ff       	sbrs	r17, 7
    1a82:	05 c0       	rjmp	.+10     	; 0x1a8e <__pack_f+0x162>
    1a84:	16 95       	lsr	r17
    1a86:	07 95       	ror	r16
    1a88:	f7 94       	ror	r15
    1a8a:	e7 94       	ror	r14
    1a8c:	31 96       	adiw	r30, 0x01	; 1
    1a8e:	87 e0       	ldi	r24, 0x07	; 7
    1a90:	16 95       	lsr	r17
    1a92:	07 95       	ror	r16
    1a94:	f7 94       	ror	r15
    1a96:	e7 94       	ror	r14
    1a98:	8a 95       	dec	r24
    1a9a:	d1 f7       	brne	.-12     	; 0x1a90 <__pack_f+0x164>
    1a9c:	05 c0       	rjmp	.+10     	; 0x1aa8 <__pack_f+0x17c>
    1a9e:	ee 24       	eor	r14, r14
    1aa0:	ff 24       	eor	r15, r15
    1aa2:	87 01       	movw	r16, r14
    1aa4:	ef ef       	ldi	r30, 0xFF	; 255
    1aa6:	f0 e0       	ldi	r31, 0x00	; 0
    1aa8:	6e 2f       	mov	r22, r30
    1aaa:	67 95       	ror	r22
    1aac:	66 27       	eor	r22, r22
    1aae:	67 95       	ror	r22
    1ab0:	90 2f       	mov	r25, r16
    1ab2:	9f 77       	andi	r25, 0x7F	; 127
    1ab4:	d7 94       	ror	r13
    1ab6:	dd 24       	eor	r13, r13
    1ab8:	d7 94       	ror	r13
    1aba:	8e 2f       	mov	r24, r30
    1abc:	86 95       	lsr	r24
    1abe:	49 2f       	mov	r20, r25
    1ac0:	46 2b       	or	r20, r22
    1ac2:	58 2f       	mov	r21, r24
    1ac4:	5d 29       	or	r21, r13
    1ac6:	b7 01       	movw	r22, r14
    1ac8:	ca 01       	movw	r24, r20
    1aca:	1f 91       	pop	r17
    1acc:	0f 91       	pop	r16
    1ace:	ff 90       	pop	r15
    1ad0:	ef 90       	pop	r14
    1ad2:	df 90       	pop	r13
    1ad4:	08 95       	ret

00001ad6 <__unpack_f>:
    1ad6:	fc 01       	movw	r30, r24
    1ad8:	db 01       	movw	r26, r22
    1ada:	40 81       	ld	r20, Z
    1adc:	51 81       	ldd	r21, Z+1	; 0x01
    1ade:	22 81       	ldd	r18, Z+2	; 0x02
    1ae0:	62 2f       	mov	r22, r18
    1ae2:	6f 77       	andi	r22, 0x7F	; 127
    1ae4:	70 e0       	ldi	r23, 0x00	; 0
    1ae6:	22 1f       	adc	r18, r18
    1ae8:	22 27       	eor	r18, r18
    1aea:	22 1f       	adc	r18, r18
    1aec:	93 81       	ldd	r25, Z+3	; 0x03
    1aee:	89 2f       	mov	r24, r25
    1af0:	88 0f       	add	r24, r24
    1af2:	82 2b       	or	r24, r18
    1af4:	28 2f       	mov	r18, r24
    1af6:	30 e0       	ldi	r19, 0x00	; 0
    1af8:	99 1f       	adc	r25, r25
    1afa:	99 27       	eor	r25, r25
    1afc:	99 1f       	adc	r25, r25
    1afe:	11 96       	adiw	r26, 0x01	; 1
    1b00:	9c 93       	st	X, r25
    1b02:	11 97       	sbiw	r26, 0x01	; 1
    1b04:	21 15       	cp	r18, r1
    1b06:	31 05       	cpc	r19, r1
    1b08:	a9 f5       	brne	.+106    	; 0x1b74 <__unpack_f+0x9e>
    1b0a:	41 15       	cp	r20, r1
    1b0c:	51 05       	cpc	r21, r1
    1b0e:	61 05       	cpc	r22, r1
    1b10:	71 05       	cpc	r23, r1
    1b12:	11 f4       	brne	.+4      	; 0x1b18 <__unpack_f+0x42>
    1b14:	82 e0       	ldi	r24, 0x02	; 2
    1b16:	37 c0       	rjmp	.+110    	; 0x1b86 <__unpack_f+0xb0>
    1b18:	82 e8       	ldi	r24, 0x82	; 130
    1b1a:	9f ef       	ldi	r25, 0xFF	; 255
    1b1c:	13 96       	adiw	r26, 0x03	; 3
    1b1e:	9c 93       	st	X, r25
    1b20:	8e 93       	st	-X, r24
    1b22:	12 97       	sbiw	r26, 0x02	; 2
    1b24:	9a 01       	movw	r18, r20
    1b26:	ab 01       	movw	r20, r22
    1b28:	67 e0       	ldi	r22, 0x07	; 7
    1b2a:	22 0f       	add	r18, r18
    1b2c:	33 1f       	adc	r19, r19
    1b2e:	44 1f       	adc	r20, r20
    1b30:	55 1f       	adc	r21, r21
    1b32:	6a 95       	dec	r22
    1b34:	d1 f7       	brne	.-12     	; 0x1b2a <__unpack_f+0x54>
    1b36:	83 e0       	ldi	r24, 0x03	; 3
    1b38:	8c 93       	st	X, r24
    1b3a:	0d c0       	rjmp	.+26     	; 0x1b56 <__unpack_f+0x80>
    1b3c:	22 0f       	add	r18, r18
    1b3e:	33 1f       	adc	r19, r19
    1b40:	44 1f       	adc	r20, r20
    1b42:	55 1f       	adc	r21, r21
    1b44:	12 96       	adiw	r26, 0x02	; 2
    1b46:	8d 91       	ld	r24, X+
    1b48:	9c 91       	ld	r25, X
    1b4a:	13 97       	sbiw	r26, 0x03	; 3
    1b4c:	01 97       	sbiw	r24, 0x01	; 1
    1b4e:	13 96       	adiw	r26, 0x03	; 3
    1b50:	9c 93       	st	X, r25
    1b52:	8e 93       	st	-X, r24
    1b54:	12 97       	sbiw	r26, 0x02	; 2
    1b56:	20 30       	cpi	r18, 0x00	; 0
    1b58:	80 e0       	ldi	r24, 0x00	; 0
    1b5a:	38 07       	cpc	r19, r24
    1b5c:	80 e0       	ldi	r24, 0x00	; 0
    1b5e:	48 07       	cpc	r20, r24
    1b60:	80 e4       	ldi	r24, 0x40	; 64
    1b62:	58 07       	cpc	r21, r24
    1b64:	58 f3       	brcs	.-42     	; 0x1b3c <__unpack_f+0x66>
    1b66:	14 96       	adiw	r26, 0x04	; 4
    1b68:	2d 93       	st	X+, r18
    1b6a:	3d 93       	st	X+, r19
    1b6c:	4d 93       	st	X+, r20
    1b6e:	5c 93       	st	X, r21
    1b70:	17 97       	sbiw	r26, 0x07	; 7
    1b72:	08 95       	ret
    1b74:	2f 3f       	cpi	r18, 0xFF	; 255
    1b76:	31 05       	cpc	r19, r1
    1b78:	79 f4       	brne	.+30     	; 0x1b98 <__unpack_f+0xc2>
    1b7a:	41 15       	cp	r20, r1
    1b7c:	51 05       	cpc	r21, r1
    1b7e:	61 05       	cpc	r22, r1
    1b80:	71 05       	cpc	r23, r1
    1b82:	19 f4       	brne	.+6      	; 0x1b8a <__unpack_f+0xb4>
    1b84:	84 e0       	ldi	r24, 0x04	; 4
    1b86:	8c 93       	st	X, r24
    1b88:	08 95       	ret
    1b8a:	64 ff       	sbrs	r22, 4
    1b8c:	03 c0       	rjmp	.+6      	; 0x1b94 <__unpack_f+0xbe>
    1b8e:	81 e0       	ldi	r24, 0x01	; 1
    1b90:	8c 93       	st	X, r24
    1b92:	12 c0       	rjmp	.+36     	; 0x1bb8 <__unpack_f+0xe2>
    1b94:	1c 92       	st	X, r1
    1b96:	10 c0       	rjmp	.+32     	; 0x1bb8 <__unpack_f+0xe2>
    1b98:	2f 57       	subi	r18, 0x7F	; 127
    1b9a:	30 40       	sbci	r19, 0x00	; 0
    1b9c:	13 96       	adiw	r26, 0x03	; 3
    1b9e:	3c 93       	st	X, r19
    1ba0:	2e 93       	st	-X, r18
    1ba2:	12 97       	sbiw	r26, 0x02	; 2
    1ba4:	83 e0       	ldi	r24, 0x03	; 3
    1ba6:	8c 93       	st	X, r24
    1ba8:	87 e0       	ldi	r24, 0x07	; 7
    1baa:	44 0f       	add	r20, r20
    1bac:	55 1f       	adc	r21, r21
    1bae:	66 1f       	adc	r22, r22
    1bb0:	77 1f       	adc	r23, r23
    1bb2:	8a 95       	dec	r24
    1bb4:	d1 f7       	brne	.-12     	; 0x1baa <__unpack_f+0xd4>
    1bb6:	70 64       	ori	r23, 0x40	; 64
    1bb8:	14 96       	adiw	r26, 0x04	; 4
    1bba:	4d 93       	st	X+, r20
    1bbc:	5d 93       	st	X+, r21
    1bbe:	6d 93       	st	X+, r22
    1bc0:	7c 93       	st	X, r23
    1bc2:	17 97       	sbiw	r26, 0x07	; 7
    1bc4:	08 95       	ret

00001bc6 <__fpcmp_parts_f>:
    1bc6:	1f 93       	push	r17
    1bc8:	dc 01       	movw	r26, r24
    1bca:	fb 01       	movw	r30, r22
    1bcc:	9c 91       	ld	r25, X
    1bce:	92 30       	cpi	r25, 0x02	; 2
    1bd0:	08 f4       	brcc	.+2      	; 0x1bd4 <__fpcmp_parts_f+0xe>
    1bd2:	47 c0       	rjmp	.+142    	; 0x1c62 <__fpcmp_parts_f+0x9c>
    1bd4:	80 81       	ld	r24, Z
    1bd6:	82 30       	cpi	r24, 0x02	; 2
    1bd8:	08 f4       	brcc	.+2      	; 0x1bdc <__fpcmp_parts_f+0x16>
    1bda:	43 c0       	rjmp	.+134    	; 0x1c62 <__fpcmp_parts_f+0x9c>
    1bdc:	94 30       	cpi	r25, 0x04	; 4
    1bde:	51 f4       	brne	.+20     	; 0x1bf4 <__fpcmp_parts_f+0x2e>
    1be0:	11 96       	adiw	r26, 0x01	; 1
    1be2:	1c 91       	ld	r17, X
    1be4:	84 30       	cpi	r24, 0x04	; 4
    1be6:	99 f5       	brne	.+102    	; 0x1c4e <__fpcmp_parts_f+0x88>
    1be8:	81 81       	ldd	r24, Z+1	; 0x01
    1bea:	68 2f       	mov	r22, r24
    1bec:	70 e0       	ldi	r23, 0x00	; 0
    1bee:	61 1b       	sub	r22, r17
    1bf0:	71 09       	sbc	r23, r1
    1bf2:	3f c0       	rjmp	.+126    	; 0x1c72 <__fpcmp_parts_f+0xac>
    1bf4:	84 30       	cpi	r24, 0x04	; 4
    1bf6:	21 f0       	breq	.+8      	; 0x1c00 <__fpcmp_parts_f+0x3a>
    1bf8:	92 30       	cpi	r25, 0x02	; 2
    1bfa:	31 f4       	brne	.+12     	; 0x1c08 <__fpcmp_parts_f+0x42>
    1bfc:	82 30       	cpi	r24, 0x02	; 2
    1bfe:	b9 f1       	breq	.+110    	; 0x1c6e <__fpcmp_parts_f+0xa8>
    1c00:	81 81       	ldd	r24, Z+1	; 0x01
    1c02:	88 23       	and	r24, r24
    1c04:	89 f1       	breq	.+98     	; 0x1c68 <__fpcmp_parts_f+0xa2>
    1c06:	2d c0       	rjmp	.+90     	; 0x1c62 <__fpcmp_parts_f+0x9c>
    1c08:	11 96       	adiw	r26, 0x01	; 1
    1c0a:	1c 91       	ld	r17, X
    1c0c:	11 97       	sbiw	r26, 0x01	; 1
    1c0e:	82 30       	cpi	r24, 0x02	; 2
    1c10:	f1 f0       	breq	.+60     	; 0x1c4e <__fpcmp_parts_f+0x88>
    1c12:	81 81       	ldd	r24, Z+1	; 0x01
    1c14:	18 17       	cp	r17, r24
    1c16:	d9 f4       	brne	.+54     	; 0x1c4e <__fpcmp_parts_f+0x88>
    1c18:	12 96       	adiw	r26, 0x02	; 2
    1c1a:	2d 91       	ld	r18, X+
    1c1c:	3c 91       	ld	r19, X
    1c1e:	13 97       	sbiw	r26, 0x03	; 3
    1c20:	82 81       	ldd	r24, Z+2	; 0x02
    1c22:	93 81       	ldd	r25, Z+3	; 0x03
    1c24:	82 17       	cp	r24, r18
    1c26:	93 07       	cpc	r25, r19
    1c28:	94 f0       	brlt	.+36     	; 0x1c4e <__fpcmp_parts_f+0x88>
    1c2a:	28 17       	cp	r18, r24
    1c2c:	39 07       	cpc	r19, r25
    1c2e:	bc f0       	brlt	.+46     	; 0x1c5e <__fpcmp_parts_f+0x98>
    1c30:	14 96       	adiw	r26, 0x04	; 4
    1c32:	8d 91       	ld	r24, X+
    1c34:	9d 91       	ld	r25, X+
    1c36:	0d 90       	ld	r0, X+
    1c38:	bc 91       	ld	r27, X
    1c3a:	a0 2d       	mov	r26, r0
    1c3c:	24 81       	ldd	r18, Z+4	; 0x04
    1c3e:	35 81       	ldd	r19, Z+5	; 0x05
    1c40:	46 81       	ldd	r20, Z+6	; 0x06
    1c42:	57 81       	ldd	r21, Z+7	; 0x07
    1c44:	28 17       	cp	r18, r24
    1c46:	39 07       	cpc	r19, r25
    1c48:	4a 07       	cpc	r20, r26
    1c4a:	5b 07       	cpc	r21, r27
    1c4c:	18 f4       	brcc	.+6      	; 0x1c54 <__fpcmp_parts_f+0x8e>
    1c4e:	11 23       	and	r17, r17
    1c50:	41 f0       	breq	.+16     	; 0x1c62 <__fpcmp_parts_f+0x9c>
    1c52:	0a c0       	rjmp	.+20     	; 0x1c68 <__fpcmp_parts_f+0xa2>
    1c54:	82 17       	cp	r24, r18
    1c56:	93 07       	cpc	r25, r19
    1c58:	a4 07       	cpc	r26, r20
    1c5a:	b5 07       	cpc	r27, r21
    1c5c:	40 f4       	brcc	.+16     	; 0x1c6e <__fpcmp_parts_f+0xa8>
    1c5e:	11 23       	and	r17, r17
    1c60:	19 f0       	breq	.+6      	; 0x1c68 <__fpcmp_parts_f+0xa2>
    1c62:	61 e0       	ldi	r22, 0x01	; 1
    1c64:	70 e0       	ldi	r23, 0x00	; 0
    1c66:	05 c0       	rjmp	.+10     	; 0x1c72 <__fpcmp_parts_f+0xac>
    1c68:	6f ef       	ldi	r22, 0xFF	; 255
    1c6a:	7f ef       	ldi	r23, 0xFF	; 255
    1c6c:	02 c0       	rjmp	.+4      	; 0x1c72 <__fpcmp_parts_f+0xac>
    1c6e:	60 e0       	ldi	r22, 0x00	; 0
    1c70:	70 e0       	ldi	r23, 0x00	; 0
    1c72:	cb 01       	movw	r24, r22
    1c74:	1f 91       	pop	r17
    1c76:	08 95       	ret

00001c78 <__udivmodhi4>:
    1c78:	aa 1b       	sub	r26, r26
    1c7a:	bb 1b       	sub	r27, r27
    1c7c:	51 e1       	ldi	r21, 0x11	; 17
    1c7e:	07 c0       	rjmp	.+14     	; 0x1c8e <__udivmodhi4_ep>

00001c80 <__udivmodhi4_loop>:
    1c80:	aa 1f       	adc	r26, r26
    1c82:	bb 1f       	adc	r27, r27
    1c84:	a6 17       	cp	r26, r22
    1c86:	b7 07       	cpc	r27, r23
    1c88:	10 f0       	brcs	.+4      	; 0x1c8e <__udivmodhi4_ep>
    1c8a:	a6 1b       	sub	r26, r22
    1c8c:	b7 0b       	sbc	r27, r23

00001c8e <__udivmodhi4_ep>:
    1c8e:	88 1f       	adc	r24, r24
    1c90:	99 1f       	adc	r25, r25
    1c92:	5a 95       	dec	r21
    1c94:	a9 f7       	brne	.-22     	; 0x1c80 <__udivmodhi4_loop>
    1c96:	80 95       	com	r24
    1c98:	90 95       	com	r25
    1c9a:	bc 01       	movw	r22, r24
    1c9c:	cd 01       	movw	r24, r26
    1c9e:	08 95       	ret

00001ca0 <__prologue_saves__>:
    1ca0:	2f 92       	push	r2
    1ca2:	3f 92       	push	r3
    1ca4:	4f 92       	push	r4
    1ca6:	5f 92       	push	r5
    1ca8:	6f 92       	push	r6
    1caa:	7f 92       	push	r7
    1cac:	8f 92       	push	r8
    1cae:	9f 92       	push	r9
    1cb0:	af 92       	push	r10
    1cb2:	bf 92       	push	r11
    1cb4:	cf 92       	push	r12
    1cb6:	df 92       	push	r13
    1cb8:	ef 92       	push	r14
    1cba:	ff 92       	push	r15
    1cbc:	0f 93       	push	r16
    1cbe:	1f 93       	push	r17
    1cc0:	cf 93       	push	r28
    1cc2:	df 93       	push	r29
    1cc4:	cd b7       	in	r28, 0x3d	; 61
    1cc6:	de b7       	in	r29, 0x3e	; 62
    1cc8:	ca 1b       	sub	r28, r26
    1cca:	db 0b       	sbc	r29, r27
    1ccc:	0f b6       	in	r0, 0x3f	; 63
    1cce:	f8 94       	cli
    1cd0:	de bf       	out	0x3e, r29	; 62
    1cd2:	0f be       	out	0x3f, r0	; 63
    1cd4:	cd bf       	out	0x3d, r28	; 61
    1cd6:	09 94       	ijmp

00001cd8 <__epilogue_restores__>:
    1cd8:	2a 88       	ldd	r2, Y+18	; 0x12
    1cda:	39 88       	ldd	r3, Y+17	; 0x11
    1cdc:	48 88       	ldd	r4, Y+16	; 0x10
    1cde:	5f 84       	ldd	r5, Y+15	; 0x0f
    1ce0:	6e 84       	ldd	r6, Y+14	; 0x0e
    1ce2:	7d 84       	ldd	r7, Y+13	; 0x0d
    1ce4:	8c 84       	ldd	r8, Y+12	; 0x0c
    1ce6:	9b 84       	ldd	r9, Y+11	; 0x0b
    1ce8:	aa 84       	ldd	r10, Y+10	; 0x0a
    1cea:	b9 84       	ldd	r11, Y+9	; 0x09
    1cec:	c8 84       	ldd	r12, Y+8	; 0x08
    1cee:	df 80       	ldd	r13, Y+7	; 0x07
    1cf0:	ee 80       	ldd	r14, Y+6	; 0x06
    1cf2:	fd 80       	ldd	r15, Y+5	; 0x05
    1cf4:	0c 81       	ldd	r16, Y+4	; 0x04
    1cf6:	1b 81       	ldd	r17, Y+3	; 0x03
    1cf8:	aa 81       	ldd	r26, Y+2	; 0x02
    1cfa:	b9 81       	ldd	r27, Y+1	; 0x01
    1cfc:	ce 0f       	add	r28, r30
    1cfe:	d1 1d       	adc	r29, r1
    1d00:	0f b6       	in	r0, 0x3f	; 63
    1d02:	f8 94       	cli
    1d04:	de bf       	out	0x3e, r29	; 62
    1d06:	0f be       	out	0x3f, r0	; 63
    1d08:	cd bf       	out	0x3d, r28	; 61
    1d0a:	ed 01       	movw	r28, r26
    1d0c:	08 95       	ret

00001d0e <_exit>:
    1d0e:	f8 94       	cli

00001d10 <__stop_program>:
    1d10:	ff cf       	rjmp	.-2      	; 0x1d10 <__stop_program>
