
xfreq-avr.elf:     file format elf32-avr

Sections:
Idx Name          Size      VMA       LMA       File off  Algn
  0 .text         00000a1e  00000000  00000000  00000094  2**1
                  CONTENTS, ALLOC, LOAD, READONLY, CODE
  1 .data         00000020  00800060  00000a1e  00000ab2  2**0
                  CONTENTS, ALLOC, LOAD, DATA
  2 .bss          00000007  00800080  00800080  00000ad2  2**0
                  ALLOC
  3 .debug_aranges 00000120  00000000  00000000  00000ad2  2**0
                  CONTENTS, READONLY, DEBUGGING
  4 .debug_pubnames 00000282  00000000  00000000  00000bf2  2**0
                  CONTENTS, READONLY, DEBUGGING
  5 .debug_info   00001558  00000000  00000000  00000e74  2**0
                  CONTENTS, READONLY, DEBUGGING
  6 .debug_abbrev 0000075b  00000000  00000000  000023cc  2**0
                  CONTENTS, READONLY, DEBUGGING
  7 .debug_line   00001162  00000000  00000000  00002b27  2**0
                  CONTENTS, READONLY, DEBUGGING
  8 .debug_frame  00000290  00000000  00000000  00003c8c  2**2
                  CONTENTS, READONLY, DEBUGGING
  9 .debug_str    000003cb  00000000  00000000  00003f1c  2**0
                  CONTENTS, READONLY, DEBUGGING
 10 .debug_loc    0000068f  00000000  00000000  000042e7  2**0
                  CONTENTS, READONLY, DEBUGGING
 11 .debug_ranges 00000060  00000000  00000000  00004976  2**0
                  CONTENTS, READONLY, DEBUGGING

Disassembly of section .text:

00000000 <__vectors>:
   0:	12 c0       	rjmp	.+36     	; 0x26 <__ctors_end>
   2:	2c c0       	rjmp	.+88     	; 0x5c <__bad_interrupt>
   4:	2b c0       	rjmp	.+86     	; 0x5c <__bad_interrupt>
   6:	2a c0       	rjmp	.+84     	; 0x5c <__bad_interrupt>
   8:	29 c0       	rjmp	.+82     	; 0x5c <__bad_interrupt>
   a:	28 c0       	rjmp	.+80     	; 0x5c <__bad_interrupt>
   c:	27 c0       	rjmp	.+78     	; 0x5c <__bad_interrupt>
   e:	26 c0       	rjmp	.+76     	; 0x5c <__bad_interrupt>
  10:	25 c0       	rjmp	.+74     	; 0x5c <__bad_interrupt>
  12:	fa c3       	rjmp	.+2036   	; 0x808 <__vector_9>
  14:	23 c0       	rjmp	.+70     	; 0x5c <__bad_interrupt>
  16:	22 c0       	rjmp	.+68     	; 0x5c <__bad_interrupt>
  18:	21 c0       	rjmp	.+66     	; 0x5c <__bad_interrupt>
  1a:	20 c0       	rjmp	.+64     	; 0x5c <__bad_interrupt>
  1c:	1f c0       	rjmp	.+62     	; 0x5c <__bad_interrupt>
  1e:	1e c0       	rjmp	.+60     	; 0x5c <__bad_interrupt>
  20:	1d c0       	rjmp	.+58     	; 0x5c <__bad_interrupt>
  22:	1c c0       	rjmp	.+56     	; 0x5c <__bad_interrupt>
  24:	1b c0       	rjmp	.+54     	; 0x5c <__bad_interrupt>

00000026 <__ctors_end>:
  26:	11 24       	eor	r1, r1
  28:	1f be       	out	0x3f, r1	; 63
  2a:	cf e5       	ldi	r28, 0x5F	; 95
  2c:	d4 e0       	ldi	r29, 0x04	; 4
  2e:	de bf       	out	0x3e, r29	; 62
  30:	cd bf       	out	0x3d, r28	; 61

00000032 <__do_copy_data>:
  32:	10 e0       	ldi	r17, 0x00	; 0
  34:	a0 e6       	ldi	r26, 0x60	; 96
  36:	b0 e0       	ldi	r27, 0x00	; 0
  38:	ee e1       	ldi	r30, 0x1E	; 30
  3a:	fa e0       	ldi	r31, 0x0A	; 10
  3c:	02 c0       	rjmp	.+4      	; 0x42 <.do_copy_data_start>

0000003e <.do_copy_data_loop>:
  3e:	05 90       	lpm	r0, Z+
  40:	0d 92       	st	X+, r0

00000042 <.do_copy_data_start>:
  42:	a0 38       	cpi	r26, 0x80	; 128
  44:	b1 07       	cpc	r27, r17
  46:	d9 f7       	brne	.-10     	; 0x3e <.do_copy_data_loop>

00000048 <__do_clear_bss>:
  48:	10 e0       	ldi	r17, 0x00	; 0
  4a:	a0 e8       	ldi	r26, 0x80	; 128
  4c:	b0 e0       	ldi	r27, 0x00	; 0
  4e:	01 c0       	rjmp	.+2      	; 0x52 <.do_clear_bss_start>

00000050 <.do_clear_bss_loop>:
  50:	1d 92       	st	X+, r1

00000052 <.do_clear_bss_start>:
  52:	a7 38       	cpi	r26, 0x87	; 135
  54:	b1 07       	cpc	r27, r17
  56:	e1 f7       	brne	.-8      	; 0x50 <.do_clear_bss_loop>
  58:	47 d0       	rcall	.+142    	; 0xe8 <main>
  5a:	df c4       	rjmp	.+2494   	; 0xa1a <_exit>

0000005c <__bad_interrupt>:
  5c:	d1 cf       	rjmp	.-94     	; 0x0 <__vectors>

0000005e <key>:
#include <drivers/key.h>
#include <drivers/4wire-1602.h>


char key(char key)
{
  5e:	28 2f       	mov	r18, r24
   _test_key(key);
  60:	86 b3       	in	r24, 0x16	; 22
  62:	90 e0       	ldi	r25, 0x00	; 0
  64:	02 2e       	mov	r0, r18
  66:	02 c0       	rjmp	.+4      	; 0x6c <key+0xe>
  68:	95 95       	asr	r25
  6a:	87 95       	ror	r24
  6c:	0a 94       	dec	r0
  6e:	e2 f7       	brpl	.-8      	; 0x68 <key+0xa>
  70:	80 ff       	sbrs	r24, 0
  72:	02 c0       	rjmp	.+4      	; 0x78 <key+0x1a>
  74:	80 e0       	ldi	r24, 0x00	; 0
  76:	08 95       	ret
    milliseconds can be achieved.
 */
void
_delay_loop_2(uint16_t __count)
{
	__asm__ volatile (
  78:	8c e5       	ldi	r24, 0x5C	; 92
  7a:	94 e4       	ldi	r25, 0x44	; 68
  7c:	01 97       	sbiw	r24, 0x01	; 1
  7e:	f1 f7       	brne	.-4      	; 0x7c <key+0x1e>
  80:	86 b3       	in	r24, 0x16	; 22
  82:	90 e0       	ldi	r25, 0x00	; 0
  84:	02 c0       	rjmp	.+4      	; 0x8a <key+0x2c>
  86:	95 95       	asr	r25
  88:	87 95       	ror	r24
  8a:	2a 95       	dec	r18
  8c:	e2 f7       	brpl	.-8      	; 0x86 <key+0x28>
  8e:	80 95       	com	r24
  90:	81 70       	andi	r24, 0x01	; 1
}
  92:	08 95       	ret

00000094 <wait_key>:

char wait_key(char key)
{
  94:	48 2f       	mov	r20, r24
   _wait_key(key);
  96:	86 b3       	in	r24, 0x16	; 22
  98:	90 e0       	ldi	r25, 0x00	; 0
  9a:	04 2e       	mov	r0, r20
  9c:	02 c0       	rjmp	.+4      	; 0xa2 <wait_key+0xe>
  9e:	95 95       	asr	r25
  a0:	87 95       	ror	r24
  a2:	0a 94       	dec	r0
  a4:	e2 f7       	brpl	.-8      	; 0x9e <wait_key+0xa>
  a6:	80 fd       	sbrc	r24, 0
  a8:	1d c0       	rjmp	.+58     	; 0xe4 <wait_key+0x50>
  aa:	8c e5       	ldi	r24, 0x5C	; 92
  ac:	94 e4       	ldi	r25, 0x44	; 68
  ae:	01 97       	sbiw	r24, 0x01	; 1
  b0:	f1 f7       	brne	.-4      	; 0xae <wait_key+0x1a>
  b2:	86 b3       	in	r24, 0x16	; 22
  b4:	90 e0       	ldi	r25, 0x00	; 0
  b6:	04 2e       	mov	r0, r20
  b8:	02 c0       	rjmp	.+4      	; 0xbe <wait_key+0x2a>
  ba:	95 95       	asr	r25
  bc:	87 95       	ror	r24
  be:	0a 94       	dec	r0
  c0:	e2 f7       	brpl	.-8      	; 0xba <wait_key+0x26>
  c2:	80 fd       	sbrc	r24, 0
  c4:	0f c0       	rjmp	.+30     	; 0xe4 <wait_key+0x50>
  c6:	21 e0       	ldi	r18, 0x01	; 1
  c8:	30 e0       	ldi	r19, 0x00	; 0
  ca:	02 c0       	rjmp	.+4      	; 0xd0 <wait_key+0x3c>
  cc:	22 0f       	add	r18, r18
  ce:	33 1f       	adc	r19, r19
  d0:	4a 95       	dec	r20
  d2:	e2 f7       	brpl	.-8      	; 0xcc <wait_key+0x38>
  d4:	86 b3       	in	r24, 0x16	; 22
  d6:	90 e0       	ldi	r25, 0x00	; 0
  d8:	82 23       	and	r24, r18
  da:	93 23       	and	r25, r19
  dc:	89 2b       	or	r24, r25
  de:	d1 f3       	breq	.-12     	; 0xd4 <wait_key+0x40>
  e0:	81 e0       	ldi	r24, 0x01	; 1
  e2:	08 95       	ret
  e4:	80 e0       	ldi	r24, 0x00	; 0

}
  e6:	08 95       	ret

000000e8 <main>:

int main()
{

   
	cli();
  e8:	f8 94       	cli
    //system timer init
	timer0_init();
  ea:	b5 d3       	rcall	.+1898   	; 0x856 <timer0_init>
	enable_timer0();
  ec:	be d3       	rcall	.+1916   	; 0x86a <enable_timer0>
    sti();
  ee:	78 94       	sei

     //key LCD shiled
	lcd1602_init();
  f0:	90 d1       	rcall	.+800    	; 0x412 <lcd1602_init>


  
	_key_init();
  f2:	88 e3       	ldi	r24, 0x38	; 56
  f4:	90 e0       	ldi	r25, 0x00	; 0
  f6:	60 e0       	ldi	r22, 0x00	; 0
  f8:	40 e0       	ldi	r20, 0x00	; 0
  fa:	20 e0       	ldi	r18, 0x00	; 0
  fc:	0e d0       	rcall	.+28     	; 0x11a <__port_mode>
  fe:	88 e3       	ldi	r24, 0x38	; 56
 100:	90 e0       	ldi	r25, 0x00	; 0
 102:	60 e0       	ldi	r22, 0x00	; 0
 104:	41 e0       	ldi	r20, 0x01	; 1
 106:	21 e0       	ldi	r18, 0x01	; 1
 108:	08 d0       	rcall	.+16     	; 0x11a <__port_mode>
 10a:	88 e3       	ldi	r24, 0x38	; 56
 10c:	90 e0       	ldi	r25, 0x00	; 0
 10e:	60 e0       	ldi	r22, 0x00	; 0
 110:	42 e0       	ldi	r20, 0x02	; 2
 112:	22 e0       	ldi	r18, 0x02	; 2
 114:	02 d0       	rcall	.+4      	; 0x11a <__port_mode>
    
	//_pins_mode(LED_PORT,0,2,OUTPUT);//_nm8(0b11,0,1);
	while(1){
	

	  i2c_demo();
 116:	37 d4       	rcall	.+2158   	; 0x986 <i2c_demo>
 118:	fe cf       	rjmp	.-4      	; 0x116 <main+0x2e>

0000011a <__port_mode>:
#include <atmel/avr-io.h>



void __port_mode(volatile unsigned char* port_addr, char mode, char n, char m)
{
 11a:	54 2f       	mov	r21, r20
	if(INPUT == mode){
 11c:	66 23       	and	r22, r22
 11e:	c9 f4       	brne	.+50     	; 0x152 <__port_mode+0x38>
    	/* DDR */
		(*(volatile uint8_t *)(port_addr-1) ) &= ~(_MASK8(n,m));  /*enable input*/  
 120:	fc 01       	movw	r30, r24
 122:	42 91       	ld	r20, -Z
 124:	87 e0       	ldi	r24, 0x07	; 7
 126:	90 e0       	ldi	r25, 0x00	; 0
 128:	82 1b       	sub	r24, r18
 12a:	91 09       	sbc	r25, r1
 12c:	2f ef       	ldi	r18, 0xFF	; 255
 12e:	30 e0       	ldi	r19, 0x00	; 0
 130:	b9 01       	movw	r22, r18
 132:	02 c0       	rjmp	.+4      	; 0x138 <__port_mode+0x1e>
 134:	75 95       	asr	r23
 136:	67 95       	ror	r22
 138:	8a 95       	dec	r24
 13a:	e2 f7       	brpl	.-8      	; 0x134 <__port_mode+0x1a>
 13c:	cb 01       	movw	r24, r22
 13e:	02 c0       	rjmp	.+4      	; 0x144 <__port_mode+0x2a>
 140:	22 0f       	add	r18, r18
 142:	33 1f       	adc	r19, r19
 144:	5a 95       	dec	r21
 146:	e2 f7       	brpl	.-8      	; 0x140 <__port_mode+0x26>
 148:	82 23       	and	r24, r18
 14a:	80 95       	com	r24
 14c:	84 23       	and	r24, r20
 14e:	80 83       	st	Z, r24
 150:	08 95       	ret
    	/* PORT */  
		/*PULL UP enale lead to ADC always sample 1023...., close it here.*/
		//(*(volatile uint8_t *)port_addr) |= (_MASK8(n,m)) ; /*pull-up-enable*/  
	}else if(OUTPUT == mode){
 152:	61 30       	cpi	r22, 0x01	; 1
 154:	b9 f4       	brne	.+46     	; 0x184 <__port_mode+0x6a>
		/* DDR */
		(*(volatile uint8_t *)(port_addr-1) ) |= _MASK8(n,m);  /*enable output*/  
 156:	fc 01       	movw	r30, r24
 158:	42 91       	ld	r20, -Z
 15a:	87 e0       	ldi	r24, 0x07	; 7
 15c:	90 e0       	ldi	r25, 0x00	; 0
 15e:	82 1b       	sub	r24, r18
 160:	91 09       	sbc	r25, r1
 162:	2f ef       	ldi	r18, 0xFF	; 255
 164:	30 e0       	ldi	r19, 0x00	; 0
 166:	b9 01       	movw	r22, r18
 168:	02 c0       	rjmp	.+4      	; 0x16e <__port_mode+0x54>
 16a:	75 95       	asr	r23
 16c:	67 95       	ror	r22
 16e:	8a 95       	dec	r24
 170:	e2 f7       	brpl	.-8      	; 0x16a <__port_mode+0x50>
 172:	cb 01       	movw	r24, r22
 174:	02 c0       	rjmp	.+4      	; 0x17a <__port_mode+0x60>
 176:	22 0f       	add	r18, r18
 178:	33 1f       	adc	r19, r19
 17a:	5a 95       	dec	r21
 17c:	e2 f7       	brpl	.-8      	; 0x176 <__port_mode+0x5c>
 17e:	82 23       	and	r24, r18
 180:	84 2b       	or	r24, r20
 182:	80 83       	st	Z, r24
 184:	08 95       	ret

00000186 <__port_pullup>:
}


//pollup indicate the PIN mode is INPUT
void __port_pullup(volatile unsigned char* port_addr, char pullup, char n, char m)
{
 186:	fc 01       	movw	r30, r24
 188:	94 2f       	mov	r25, r20
 18a:	42 2f       	mov	r20, r18
 18c:	50 e0       	ldi	r21, 0x00	; 0
	if(PULLUP == pullup){
 18e:	61 30       	cpi	r22, 0x01	; 1
 190:	a9 f4       	brne	.+42     	; 0x1bc <__port_pullup+0x36>
       	/* PORT PULL UP */  
		(*(volatile uint8_t *)port_addr) |= (_MASK8(n,m)) ; /*pull-up-enable*/  
 192:	80 81       	ld	r24, Z
 194:	27 e0       	ldi	r18, 0x07	; 7
 196:	30 e0       	ldi	r19, 0x00	; 0
 198:	24 1b       	sub	r18, r20
 19a:	35 0b       	sbc	r19, r21
 19c:	4f ef       	ldi	r20, 0xFF	; 255
 19e:	50 e0       	ldi	r21, 0x00	; 0
 1a0:	ba 01       	movw	r22, r20
 1a2:	02 c0       	rjmp	.+4      	; 0x1a8 <__port_pullup+0x22>
 1a4:	75 95       	asr	r23
 1a6:	67 95       	ror	r22
 1a8:	2a 95       	dec	r18
 1aa:	e2 f7       	brpl	.-8      	; 0x1a4 <__port_pullup+0x1e>
 1ac:	9b 01       	movw	r18, r22
 1ae:	02 c0       	rjmp	.+4      	; 0x1b4 <__port_pullup+0x2e>
 1b0:	44 0f       	add	r20, r20
 1b2:	55 1f       	adc	r21, r21
 1b4:	9a 95       	dec	r25
 1b6:	e2 f7       	brpl	.-8      	; 0x1b0 <__port_pullup+0x2a>
 1b8:	24 23       	and	r18, r20
 1ba:	15 c0       	rjmp	.+42     	; 0x1e6 <__port_pullup+0x60>
	}else{
       	/* cancel PULL UP */  
		(*(volatile uint8_t *)port_addr) |= ~(_MASK8(n,m)) ; /*pull-up-enable*/  
 1bc:	80 81       	ld	r24, Z
 1be:	27 e0       	ldi	r18, 0x07	; 7
 1c0:	30 e0       	ldi	r19, 0x00	; 0
 1c2:	24 1b       	sub	r18, r20
 1c4:	35 0b       	sbc	r19, r21
 1c6:	4f ef       	ldi	r20, 0xFF	; 255
 1c8:	50 e0       	ldi	r21, 0x00	; 0
 1ca:	ba 01       	movw	r22, r20
 1cc:	02 c0       	rjmp	.+4      	; 0x1d2 <__port_pullup+0x4c>
 1ce:	75 95       	asr	r23
 1d0:	67 95       	ror	r22
 1d2:	2a 95       	dec	r18
 1d4:	e2 f7       	brpl	.-8      	; 0x1ce <__port_pullup+0x48>
 1d6:	9b 01       	movw	r18, r22
 1d8:	02 c0       	rjmp	.+4      	; 0x1de <__port_pullup+0x58>
 1da:	44 0f       	add	r20, r20
 1dc:	55 1f       	adc	r21, r21
 1de:	9a 95       	dec	r25
 1e0:	e2 f7       	brpl	.-8      	; 0x1da <__port_pullup+0x54>
 1e2:	24 23       	and	r18, r20
 1e4:	20 95       	com	r18
 1e6:	28 2b       	or	r18, r24
 1e8:	20 83       	st	Z, r18
 1ea:	08 95       	ret

000001ec <_swap8>:

/*abcd1234 => 4321dcba */
unsigned char _swap8(unsigned char x)
{
    /*abcd1234 => 1234abcd*/
	x= (x>>4) | (x<<4);
 1ec:	28 2f       	mov	r18, r24
 1ee:	22 95       	swap	r18
 1f0:	2f 70       	andi	r18, 0x0F	; 15
 1f2:	82 95       	swap	r24
 1f4:	80 7f       	andi	r24, 0xF0	; 240
 1f6:	28 2b       	or	r18, r24
	/*1234abcd  => 3412cdab*/
    	   /*1200ab00*/         /*003400cd*/
	x= ((x&0b11001100)>>2) | ((x&0b00110011)<<2);
 1f8:	30 e0       	ldi	r19, 0x00	; 0
 1fa:	c9 01       	movw	r24, r18
 1fc:	83 73       	andi	r24, 0x33	; 51
 1fe:	90 70       	andi	r25, 0x00	; 0
 200:	88 0f       	add	r24, r24
 202:	99 1f       	adc	r25, r25
 204:	88 0f       	add	r24, r24
 206:	99 1f       	adc	r25, r25
 208:	2c 7c       	andi	r18, 0xCC	; 204
 20a:	30 70       	andi	r19, 0x00	; 0
 20c:	35 95       	asr	r19
 20e:	27 95       	ror	r18
 210:	35 95       	asr	r19
 212:	27 95       	ror	r18
 214:	82 2b       	or	r24, r18
                 /*0xcc*/            /*0x33*/
	/*3412cdab => 4321dcba*/
	x= ((x&0b10101010)>>1) | ((x&0b01010101)<<1);
 216:	28 2f       	mov	r18, r24
 218:	30 e0       	ldi	r19, 0x00	; 0
 21a:	c9 01       	movw	r24, r18
 21c:	85 75       	andi	r24, 0x55	; 85
 21e:	90 70       	andi	r25, 0x00	; 0
 220:	88 0f       	add	r24, r24
 222:	99 1f       	adc	r25, r25
 224:	2a 7a       	andi	r18, 0xAA	; 170
 226:	30 70       	andi	r19, 0x00	; 0
 228:	35 95       	asr	r19
 22a:	27 95       	ror	r18
            /*0xAA*/            /*0x55*/
    return x;
}
 22c:	82 2b       	or	r24, r18
 22e:	08 95       	ret

00000230 <adc_init>:
void adc_init()
{
	short adc;

	/// AVCC, AREF 加滤波电容      ADCL keep low 8bit        init for ch0  
	ADMUX = _bits8(0b01,REFS0,REFS1) |   _bits8(0,ADLAR,ADLAR) |  _bits8(0,MUX0,MUX3); 
 230:	80 e4       	ldi	r24, 0x40	; 64
 232:	87 b9       	out	0x07, r24	; 7
        /*must READ ADCH for compled ADC*/

	/*ADC status and control*/   
	         /*enable ADC*/	  /*start first ADC*/    /*no interrupt for now*/ /*4M/32, 125kHz*/
	ADCSRA = _bits8(1,ADEN,ADEN) | _bits8(1,ADSC,ADSC) |  _bits8(0, ADIE,ADIE)   | _bits8(0b101, ADPS0,ADPS2);
 234:	85 ec       	ldi	r24, 0xC5	; 197
 236:	86 b9       	out	0x06, r24	; 6
       /*wait for 25 ADC clock for first ADC completed*/
	while(!_test_bit(ADCSRA,ADIF));
 238:	34 9b       	sbis	0x06, 4	; 6
 23a:	fe cf       	rjmp	.-4      	; 0x238 <adc_init+0x8>
	_set_bit(ADCSRA,ADIF); //clear IF bit
 23c:	34 9a       	sbi	0x06, 4	; 6
  
    adc = ADCL;
 23e:	84 b1       	in	r24, 0x04	; 4
	barrier();
	adc = ADCH;
 240:	85 b1       	in	r24, 0x05	; 5
}
 242:	08 95       	ret

00000244 <_adc>:
unsigned int _adc(unsigned char ch)
{
  unsigned int adc_l=0,adc=0;

  /*select channel*/
  _mov_bits8(ADMUX,ch,MUX0,MUX3,0,2); /*ADC0...ADC4*/
 244:	97 b1       	in	r25, 0x07	; 7
 246:	87 70       	andi	r24, 0x07	; 7
 248:	90 7f       	andi	r25, 0xF0	; 240
 24a:	89 2b       	or	r24, r25
 24c:	87 b9       	out	0x07, r24	; 7

  /*start ADC*/
  _set_bit(ADCSRA,ADSC);
 24e:	36 9a       	sbi	0x06, 6	; 6

  /*wait completed(ADIF active)*/
   while(!_test_bit(ADCSRA,ADIF));
 250:	34 9b       	sbis	0x06, 4	; 6
 252:	fe cf       	rjmp	.-4      	; 0x250 <_adc+0xc>

  /*read result */
  /*must READ ADCH for compled ADC*/
   adc_l = ADCL;
 254:	24 b1       	in	r18, 0x04	; 4
   /* GCC will swich ADCL read fist,so tell it don't do that*/
   barrier();
   adc =   ADCH ;
 256:	45 b1       	in	r20, 0x05	; 5
   adc = (adc<<8)|adc_l;
 258:	94 2f       	mov	r25, r20
 25a:	80 e0       	ldi	r24, 0x00	; 0

   _set_bit(ADCSRA,ADIF); //clear IF bit
 25c:	34 9a       	sbi	0x06, 4	; 6
 25e:	30 e0       	ldi	r19, 0x00	; 0
 260:	28 2b       	or	r18, r24
 262:	39 2b       	or	r19, r25
   return adc;
}
 264:	c9 01       	movw	r24, r18
 266:	08 95       	ret

00000268 <shiftout>:
}



void shiftout(unsigned char data)
{
 268:	20 e0       	ldi	r18, 0x00	; 0
 26a:	30 e0       	ldi	r19, 0x00	; 0
    can be achieved.
*/
void
_delay_loop_1(uint8_t __count)
{
	__asm__ volatile (
 26c:	63 e0       	ldi	r22, 0x03	; 3
	char i=0;
	for(i=0;i<8;i++){
	   delay_io();
	  
	   if((data<<i)&0x80)
 26e:	48 2f       	mov	r20, r24
 270:	50 e0       	ldi	r21, 0x00	; 0
 272:	86 2f       	mov	r24, r22
 274:	8a 95       	dec	r24
 276:	f1 f7       	brne	.-4      	; 0x274 <shiftout+0xc>
 278:	ca 01       	movw	r24, r20
 27a:	02 2e       	mov	r0, r18
 27c:	02 c0       	rjmp	.+4      	; 0x282 <shiftout+0x1a>
 27e:	88 0f       	add	r24, r24
 280:	99 1f       	adc	r25, r25
 282:	0a 94       	dec	r0
 284:	e2 f7       	brpl	.-8      	; 0x27e <shiftout+0x16>
 286:	87 ff       	sbrs	r24, 7
 288:	02 c0       	rjmp	.+4      	; 0x28e <shiftout+0x26>
	     _set_bit(METAL_74HC595_PORT, METAL_74HC595_SDI);
 28a:	c3 9a       	sbi	0x18, 3	; 24
 28c:	01 c0       	rjmp	.+2      	; 0x290 <shiftout+0x28>
	   else
	     _clear_bit(METAL_74HC595_PORT, METAL_74HC595_SDI);
 28e:	c3 98       	cbi	0x18, 3	; 24
 290:	86 2f       	mov	r24, r22
 292:	8a 95       	dec	r24
 294:	f1 f7       	brne	.-4      	; 0x292 <shiftout+0x2a>

	   delay_io();
	  _set_bit(METAL_74HC595_PORT,METAL_74HC595_CLK); 
 296:	c5 9a       	sbi	0x18, 5	; 24
 298:	86 2f       	mov	r24, r22
 29a:	8a 95       	dec	r24
 29c:	f1 f7       	brne	.-4      	; 0x29a <shiftout+0x32>
       delay_io();
	  _clear_bit(METAL_74HC595_PORT, METAL_74HC595_CLK);
 29e:	c5 98       	cbi	0x18, 5	; 24
 2a0:	2f 5f       	subi	r18, 0xFF	; 255
 2a2:	3f 4f       	sbci	r19, 0xFF	; 255


void shiftout(unsigned char data)
{
	char i=0;
	for(i=0;i<8;i++){
 2a4:	28 30       	cpi	r18, 0x08	; 8
 2a6:	31 05       	cpc	r19, r1
 2a8:	21 f7       	brne	.-56     	; 0x272 <shiftout+0xa>
       delay_io();
	  _clear_bit(METAL_74HC595_PORT, METAL_74HC595_CLK);
	  		
   }

}
 2aa:	08 95       	ret

000002ac <write_74hc595>:
void write_74hc595(unsigned char data)
{
 2ac:	1f 93       	push	r17
 2ae:	13 e0       	ldi	r17, 0x03	; 3
 2b0:	91 2f       	mov	r25, r17
 2b2:	9a 95       	dec	r25
 2b4:	f1 f7       	brne	.-4      	; 0x2b2 <write_74hc595+0x6>
	//_clear_bit(METAL_74HC595_PORT,CLK); //prepare send data
	delay_io();
      
	shiftout(data);
 2b6:	d8 df       	rcall	.-80     	; 0x268 <shiftout>
 2b8:	81 2f       	mov	r24, r17
 2ba:	8a 95       	dec	r24
 2bc:	f1 f7       	brne	.-4      	; 0x2ba <write_74hc595+0xe>
    
	delay_io();
    _set_bit(METAL_74HC595_PORT,METAL_74HC595_LATCH); //prepare open latch
 2be:	c4 9a       	sbi	0x18, 4	; 24
 2c0:	81 2f       	mov	r24, r17
 2c2:	8a 95       	dec	r24
 2c4:	f1 f7       	brne	.-4      	; 0x2c2 <write_74hc595+0x16>
     delay_io();
	 delay_io();
     delay_io();
    _clear_bit(METAL_74HC595_PORT,METAL_74HC595_LATCH); //prepare open latch
 2c6:	81 2f       	mov	r24, r17
 2c8:	8a 95       	dec	r24
 2ca:	f1 f7       	brne	.-4      	; 0x2c8 <write_74hc595+0x1c>
 2cc:	1a 95       	dec	r17
 2ce:	f1 f7       	brne	.-4      	; 0x2cc <write_74hc595+0x20>
 2d0:	c4 98       	cbi	0x18, 4	; 24
   
}
 2d2:	1f 91       	pop	r17
 2d4:	08 95       	ret

000002d6 <init_74hc595>:


void init_74hc595(void)

{
	_pins_mode(METAL_74HC595_PORT, (char)METAL_74HC595_SDI,(char)METAL_74HC595_CLK,(char)OUTPUT);
 2d6:	88 e3       	ldi	r24, 0x38	; 56
 2d8:	90 e0       	ldi	r25, 0x00	; 0
 2da:	61 e0       	ldi	r22, 0x01	; 1
 2dc:	43 e0       	ldi	r20, 0x03	; 3
 2de:	25 e0       	ldi	r18, 0x05	; 5
 2e0:	1c df       	rcall	.-456    	; 0x11a <__port_mode>
}
 2e2:	08 95       	ret

000002e4 <io_delay>:
 2e4:	82 e3       	ldi	r24, 0x32	; 50
 2e6:	8a 95       	dec	r24
 2e8:	f1 f7       	brne	.-4      	; 0x2e6 <io_delay+0x2>
 for safe and reserve space, use function and 12us	
*/
void io_delay()
{
   _delay_us(15);
}
 2ea:	08 95       	ret

000002ec <io_50ms>:
void io_50ms()
{
 2ec:	8c eb       	ldi	r24, 0xBC	; 188
 2ee:	92 e0       	ldi	r25, 0x02	; 2
    milliseconds can be achieved.
 */
void
_delay_loop_2(uint16_t __count)
{
	__asm__ volatile (
 2f0:	2a ef       	ldi	r18, 0xFA	; 250
 2f2:	30 e0       	ldi	r19, 0x00	; 0
 2f4:	f9 01       	movw	r30, r18
 2f6:	31 97       	sbiw	r30, 0x01	; 1
 2f8:	f1 f7       	brne	.-4      	; 0x2f6 <io_50ms+0xa>
		__ticks = (uint16_t) (__ms * 10.0);
		while(__ticks)
		{
			// wait 1/10 ms
			_delay_loop_2(((F_CPU) / 4e3) / 10);
			__ticks --;
 2fa:	01 97       	sbiw	r24, 0x01	; 1
		__ticks = 1;
	else if (__tmp > 65535)
	{
		//	__ticks = requested delay in 1/10 ms
		__ticks = (uint16_t) (__ms * 10.0);
		while(__ticks)
 2fc:	d9 f7       	brne	.-10     	; 0x2f4 <io_50ms+0x8>
   _delay_ms(70);
}
 2fe:	08 95       	ret

00000300 <hd44870_send>:

static void hd44870_send(unsigned char data, char is_cmd) 
{
 300:	0f 93       	push	r16
 302:	1f 93       	push	r17
 304:	08 2f       	mov	r16, r24
 306:	16 2f       	mov	r17, r22
    can be achieved.
*/
void
_delay_loop_1(uint8_t __count)
{
	__asm__ volatile (
 308:	82 e3       	ldi	r24, 0x32	; 50
 30a:	8a 95       	dec	r24
 30c:	f1 f7       	brne	.-4      	; 0x30a <hd44870_send+0xa>
  io_delay();
  
  bus4w &=~(_EN|_RW);       
 30e:	80 91 80 00 	lds	r24, 0x0080
 312:	8f 7c       	andi	r24, 0xCF	; 207
 314:	80 93 80 00 	sts	0x0080, r24
  _rswe();
 318:	c9 df       	rcall	.-110    	; 0x2ac <write_74hc595>
 31a:	80 91 80 00 	lds	r24, 0x0080
  //io_delay();
  
  if(is_cmd)
 31e:	11 23       	and	r17, r17
 320:	11 f0       	breq	.+4      	; 0x326 <hd44870_send+0x26>
  	 bus4w&=~_RS;  //RS=0，command
 322:	8f 7b       	andi	r24, 0xBF	; 191
 324:	01 c0       	rjmp	.+2      	; 0x328 <hd44870_send+0x28>
  else
  	 bus4w|=_RS;  //RS=1, data
 326:	80 64       	ori	r24, 0x40	; 64
 328:	80 93 80 00 	sts	0x0080, r24
  _rswe();
 32c:	80 91 80 00 	lds	r24, 0x0080
 330:	bd df       	rcall	.-134    	; 0x2ac <write_74hc595>
 332:	12 e3       	ldi	r17, 0x32	; 50
 334:	81 2f       	mov	r24, r17
 336:	8a 95       	dec	r24
 338:	f1 f7       	brne	.-4      	; 0x336 <hd44870_send+0x36>
  io_delay();
  
  /* 4 MSB*/
  bus4w &= ~(_DATA);    
  bus4w |= (data>>4)&_DATA; 
 33a:	80 2f       	mov	r24, r16
 33c:	82 95       	swap	r24
 33e:	8f 70       	andi	r24, 0x0F	; 15
 340:	90 91 80 00 	lds	r25, 0x0080
 344:	90 7f       	andi	r25, 0xF0	; 240
 346:	89 2b       	or	r24, r25
 348:	80 93 80 00 	sts	0x0080, r24
  _data();
 34c:	af df       	rcall	.-162    	; 0x2ac <write_74hc595>
 34e:	81 2f       	mov	r24, r17
 350:	8a 95       	dec	r24
 352:	f1 f7       	brne	.-4      	; 0x350 <hd44870_send+0x50>
  
  io_delay();
  bus4w |=_EN;  
 354:	80 91 80 00 	lds	r24, 0x0080
 358:	80 61       	ori	r24, 0x10	; 16
 35a:	80 93 80 00 	sts	0x0080, r24
  _rswe();
 35e:	a6 df       	rcall	.-180    	; 0x2ac <write_74hc595>
 360:	81 2f       	mov	r24, r17
 362:	8a 95       	dec	r24
 364:	f1 f7       	brne	.-4      	; 0x362 <hd44870_send+0x62>
  io_delay(); 
  bus4w &=~_EN;   
 366:	80 91 80 00 	lds	r24, 0x0080
 36a:	8f 7e       	andi	r24, 0xEF	; 239
 36c:	80 93 80 00 	sts	0x0080, r24
  _rswe();
 370:	9d df       	rcall	.-198    	; 0x2ac <write_74hc595>
 372:	81 2f       	mov	r24, r17
 374:	8a 95       	dec	r24
 376:	f1 f7       	brne	.-4      	; 0x374 <hd44870_send+0x74>

  io_delay();
  
  /*send low 4 lsb*/
  bus4w&=~_DATA;         
  bus4w|=(data)&_DATA; 
 378:	80 2f       	mov	r24, r16
 37a:	8f 70       	andi	r24, 0x0F	; 15
 37c:	90 91 80 00 	lds	r25, 0x0080
 380:	90 7f       	andi	r25, 0xF0	; 240
 382:	89 2b       	or	r24, r25
 384:	80 93 80 00 	sts	0x0080, r24
  _data();
 388:	91 df       	rcall	.-222    	; 0x2ac <write_74hc595>
 38a:	81 2f       	mov	r24, r17
 38c:	8a 95       	dec	r24
 38e:	f1 f7       	brne	.-4      	; 0x38c <hd44870_send+0x8c>
  io_delay();

  bus4w |=_EN;  
 390:	80 91 80 00 	lds	r24, 0x0080
 394:	80 61       	ori	r24, 0x10	; 16
 396:	80 93 80 00 	sts	0x0080, r24
  _rswe();
 39a:	88 df       	rcall	.-240    	; 0x2ac <write_74hc595>
 39c:	1a 95       	dec	r17
 39e:	f1 f7       	brne	.-4      	; 0x39c <hd44870_send+0x9c>
  io_delay(); 
  bus4w &=~_EN;   
 3a0:	80 91 80 00 	lds	r24, 0x0080
 3a4:	8f 7e       	andi	r24, 0xEF	; 239
 3a6:	80 93 80 00 	sts	0x0080, r24
  _rswe();
 3aa:	80 df       	rcall	.-256    	; 0x2ac <write_74hc595>
  
  
}
 3ac:	1f 91       	pop	r17
 3ae:	0f 91       	pop	r16
 3b0:	08 95       	ret

000003b2 <lcd_putc>:
   
}

void lcd_putc(char data) //列x=0~15,行y=0,1
{
  send_data( data);
 3b2:	60 e0       	ldi	r22, 0x00	; 0
 3b4:	a5 df       	rcall	.-182    	; 0x300 <hd44870_send>
}
 3b6:	08 95       	ret

000003b8 <lcd_clear>:
    }
     
}

void lcd_clear()
{
 3b8:	8c eb       	ldi	r24, 0xBC	; 188
 3ba:	92 e0       	ldi	r25, 0x02	; 2
    milliseconds can be achieved.
 */
void
_delay_loop_2(uint16_t __count)
{
	__asm__ volatile (
 3bc:	2a ef       	ldi	r18, 0xFA	; 250
 3be:	30 e0       	ldi	r19, 0x00	; 0
 3c0:	f9 01       	movw	r30, r18
 3c2:	31 97       	sbiw	r30, 0x01	; 1
 3c4:	f1 f7       	brne	.-4      	; 0x3c2 <lcd_clear+0xa>
		{
			// wait 1/10 ms
			_delay_loop_2(((F_CPU) / 4e3) / 10);
			__ticks --;
 3c6:	01 97       	sbiw	r24, 0x01	; 1
		__ticks = 1;
	else if (__tmp > 65535)
	{
		//	__ticks = requested delay in 1/10 ms
		__ticks = (uint16_t) (__ms * 10.0);
		while(__ticks)
 3c8:	d9 f7       	brne	.-10     	; 0x3c0 <lcd_clear+0x8>
   io_50ms();
   send_cmd(0x01);  /*清屏*/
 3ca:	81 e0       	ldi	r24, 0x01	; 1
 3cc:	61 e0       	ldi	r22, 0x01	; 1
 3ce:	98 df       	rcall	.-208    	; 0x300 <hd44870_send>
 3d0:	8c eb       	ldi	r24, 0xBC	; 188
 3d2:	92 e0       	ldi	r25, 0x02	; 2
 3d4:	2a ef       	ldi	r18, 0xFA	; 250
 3d6:	30 e0       	ldi	r19, 0x00	; 0
 3d8:	f9 01       	movw	r30, r18
 3da:	31 97       	sbiw	r30, 0x01	; 1
 3dc:	f1 f7       	brne	.-4      	; 0x3da <lcd_clear+0x22>
		{
			// wait 1/10 ms
			_delay_loop_2(((F_CPU) / 4e3) / 10);
			__ticks --;
 3de:	01 97       	sbiw	r24, 0x01	; 1
		__ticks = 1;
	else if (__tmp > 65535)
	{
		//	__ticks = requested delay in 1/10 ms
		__ticks = (uint16_t) (__ms * 10.0);
		while(__ticks)
 3e0:	d9 f7       	brne	.-10     	; 0x3d8 <lcd_clear+0x20>
   io_50ms();
   
}
 3e2:	08 95       	ret

000003e4 <lcd_puts>:
{
	send_cmd(x+(y?0xc0:0x80));  
}

void lcd_puts(char *s) 
{
 3e4:	cf 93       	push	r28
 3e6:	df 93       	push	r29
 3e8:	ec 01       	movw	r28, r24
 3ea:	03 c0       	rjmp	.+6      	; 0x3f2 <lcd_puts+0xe>
    while (*s) 
    {
      send_data( *s );
 3ec:	60 e0       	ldi	r22, 0x00	; 0
 3ee:	88 df       	rcall	.-240    	; 0x300 <hd44870_send>
      s ++;
 3f0:	21 96       	adiw	r28, 0x01	; 1
	send_cmd(x+(y?0xc0:0x80));  
}

void lcd_puts(char *s) 
{
    while (*s) 
 3f2:	88 81       	ld	r24, Y
 3f4:	88 23       	and	r24, r24
 3f6:	d1 f7       	brne	.-12     	; 0x3ec <lcd_puts+0x8>
    {
      send_data( *s );
      s ++;
    }
     
}
 3f8:	df 91       	pop	r29
 3fa:	cf 91       	pop	r28
 3fc:	08 95       	ret

000003fe <lcd_cursor>:
  io_50ms();io_50ms();
}


void lcd_cursor(char x, char y)
{
 3fe:	98 2f       	mov	r25, r24
	send_cmd(x+(y?0xc0:0x80));  
 400:	66 23       	and	r22, r22
 402:	11 f4       	brne	.+4      	; 0x408 <lcd_cursor+0xa>
 404:	80 e8       	ldi	r24, 0x80	; 128
 406:	01 c0       	rjmp	.+2      	; 0x40a <lcd_cursor+0xc>
 408:	80 ec       	ldi	r24, 0xC0	; 192
 40a:	89 0f       	add	r24, r25
 40c:	61 e0       	ldi	r22, 0x01	; 1
 40e:	78 df       	rcall	.-272    	; 0x300 <hd44870_send>
}
 410:	08 95       	ret

00000412 <lcd1602_init>:
#define send_cmd(data) hd44870_send(data,1)
#define send_data(data) hd44870_send(data,0)

void lcd1602_init(void)    
{
  io_init();
 412:	61 df       	rcall	.-318    	; 0x2d6 <init_74hc595>

  send_cmd(0x33);
 414:	83 e3       	ldi	r24, 0x33	; 51
 416:	61 e0       	ldi	r22, 0x01	; 1
 418:	73 df       	rcall	.-282    	; 0x300 <hd44870_send>
 41a:	8c eb       	ldi	r24, 0xBC	; 188
 41c:	92 e0       	ldi	r25, 0x02	; 2
 41e:	2a ef       	ldi	r18, 0xFA	; 250
 420:	30 e0       	ldi	r19, 0x00	; 0
 422:	f9 01       	movw	r30, r18
 424:	31 97       	sbiw	r30, 0x01	; 1
 426:	f1 f7       	brne	.-4      	; 0x424 <lcd1602_init+0x12>
		{
			// wait 1/10 ms
			_delay_loop_2(((F_CPU) / 4e3) / 10);
			__ticks --;
 428:	01 97       	sbiw	r24, 0x01	; 1
		__ticks = 1;
	else if (__tmp > 65535)
	{
		//	__ticks = requested delay in 1/10 ms
		__ticks = (uint16_t) (__ms * 10.0);
		while(__ticks)
 42a:	d9 f7       	brne	.-10     	; 0x422 <lcd1602_init+0x10>
  io_50ms();
  send_cmd(0x32);
 42c:	82 e3       	ldi	r24, 0x32	; 50
 42e:	61 e0       	ldi	r22, 0x01	; 1
 430:	67 df       	rcall	.-306    	; 0x300 <hd44870_send>
 432:	8c eb       	ldi	r24, 0xBC	; 188
 434:	92 e0       	ldi	r25, 0x02	; 2
 436:	2a ef       	ldi	r18, 0xFA	; 250
 438:	30 e0       	ldi	r19, 0x00	; 0
 43a:	f9 01       	movw	r30, r18
 43c:	31 97       	sbiw	r30, 0x01	; 1
 43e:	f1 f7       	brne	.-4      	; 0x43c <lcd1602_init+0x2a>
		{
			// wait 1/10 ms
			_delay_loop_2(((F_CPU) / 4e3) / 10);
			__ticks --;
 440:	01 97       	sbiw	r24, 0x01	; 1
		__ticks = 1;
	else if (__tmp > 65535)
	{
		//	__ticks = requested delay in 1/10 ms
		__ticks = (uint16_t) (__ms * 10.0);
		while(__ticks)
 442:	d9 f7       	brne	.-10     	; 0x43a <lcd1602_init+0x28>
  io_50ms();

  send_cmd(0x28); /* ４位数据线，５＊１０字体 */
 444:	88 e2       	ldi	r24, 0x28	; 40
 446:	61 e0       	ldi	r22, 0x01	; 1
 448:	5b df       	rcall	.-330    	; 0x300 <hd44870_send>
 44a:	8c eb       	ldi	r24, 0xBC	; 188
 44c:	92 e0       	ldi	r25, 0x02	; 2
 44e:	2a ef       	ldi	r18, 0xFA	; 250
 450:	30 e0       	ldi	r19, 0x00	; 0
 452:	f9 01       	movw	r30, r18
 454:	31 97       	sbiw	r30, 0x01	; 1
 456:	f1 f7       	brne	.-4      	; 0x454 <lcd1602_init+0x42>
		{
			// wait 1/10 ms
			_delay_loop_2(((F_CPU) / 4e3) / 10);
			__ticks --;
 458:	01 97       	sbiw	r24, 0x01	; 1
		__ticks = 1;
	else if (__tmp > 65535)
	{
		//	__ticks = requested delay in 1/10 ms
		__ticks = (uint16_t) (__ms * 10.0);
		while(__ticks)
 45a:	d9 f7       	brne	.-10     	; 0x452 <lcd1602_init+0x40>
  io_50ms();
  
  send_cmd(0x0c); /*开显示，无光标， 0xf：开光标并闪烁*/   
 45c:	8c e0       	ldi	r24, 0x0C	; 12
 45e:	61 e0       	ldi	r22, 0x01	; 1
 460:	4f df       	rcall	.-354    	; 0x300 <hd44870_send>
 462:	8c eb       	ldi	r24, 0xBC	; 188
 464:	92 e0       	ldi	r25, 0x02	; 2
 466:	2a ef       	ldi	r18, 0xFA	; 250
 468:	30 e0       	ldi	r19, 0x00	; 0
 46a:	f9 01       	movw	r30, r18
 46c:	31 97       	sbiw	r30, 0x01	; 1
 46e:	f1 f7       	brne	.-4      	; 0x46c <__stack+0xd>
		{
			// wait 1/10 ms
			_delay_loop_2(((F_CPU) / 4e3) / 10);
			__ticks --;
 470:	01 97       	sbiw	r24, 0x01	; 1
		__ticks = 1;
	else if (__tmp > 65535)
	{
		//	__ticks = requested delay in 1/10 ms
		__ticks = (uint16_t) (__ms * 10.0);
		while(__ticks)
 472:	d9 f7       	brne	.-10     	; 0x46a <__stack+0xb>
  io_50ms();

  send_cmd(0x06);  /* 光标自动右移，整屏不移动 */
 474:	86 e0       	ldi	r24, 0x06	; 6
 476:	61 e0       	ldi	r22, 0x01	; 1
 478:	43 df       	rcall	.-378    	; 0x300 <hd44870_send>
 47a:	8c eb       	ldi	r24, 0xBC	; 188
 47c:	92 e0       	ldi	r25, 0x02	; 2
 47e:	2a ef       	ldi	r18, 0xFA	; 250
 480:	30 e0       	ldi	r19, 0x00	; 0
 482:	f9 01       	movw	r30, r18
 484:	31 97       	sbiw	r30, 0x01	; 1
 486:	f1 f7       	brne	.-4      	; 0x484 <__stack+0x25>
		{
			// wait 1/10 ms
			_delay_loop_2(((F_CPU) / 4e3) / 10);
			__ticks --;
 488:	01 97       	sbiw	r24, 0x01	; 1
		__ticks = 1;
	else if (__tmp > 65535)
	{
		//	__ticks = requested delay in 1/10 ms
		__ticks = (uint16_t) (__ms * 10.0);
		while(__ticks)
 48a:	d9 f7       	brne	.-10     	; 0x482 <__stack+0x23>
  io_50ms();
  

  send_cmd(0x01);  /*清屏*/
 48c:	81 e0       	ldi	r24, 0x01	; 1
 48e:	61 e0       	ldi	r22, 0x01	; 1
 490:	37 df       	rcall	.-402    	; 0x300 <hd44870_send>
 492:	8c eb       	ldi	r24, 0xBC	; 188
 494:	92 e0       	ldi	r25, 0x02	; 2
 496:	2a ef       	ldi	r18, 0xFA	; 250
 498:	30 e0       	ldi	r19, 0x00	; 0
 49a:	f9 01       	movw	r30, r18
 49c:	31 97       	sbiw	r30, 0x01	; 1
 49e:	f1 f7       	brne	.-4      	; 0x49c <__stack+0x3d>
		{
			// wait 1/10 ms
			_delay_loop_2(((F_CPU) / 4e3) / 10);
			__ticks --;
 4a0:	01 97       	sbiw	r24, 0x01	; 1
		__ticks = 1;
	else if (__tmp > 65535)
	{
		//	__ticks = requested delay in 1/10 ms
		__ticks = (uint16_t) (__ms * 10.0);
		while(__ticks)
 4a2:	d9 f7       	brne	.-10     	; 0x49a <__stack+0x3b>
 4a4:	8c eb       	ldi	r24, 0xBC	; 188
 4a6:	92 e0       	ldi	r25, 0x02	; 2
 4a8:	2a ef       	ldi	r18, 0xFA	; 250
 4aa:	30 e0       	ldi	r19, 0x00	; 0
 4ac:	f9 01       	movw	r30, r18
 4ae:	31 97       	sbiw	r30, 0x01	; 1
 4b0:	f1 f7       	brne	.-4      	; 0x4ae <__stack+0x4f>
		{
			// wait 1/10 ms
			_delay_loop_2(((F_CPU) / 4e3) / 10);
			__ticks --;
 4b2:	01 97       	sbiw	r24, 0x01	; 1
		__ticks = 1;
	else if (__tmp > 65535)
	{
		//	__ticks = requested delay in 1/10 ms
		__ticks = (uint16_t) (__ms * 10.0);
		while(__ticks)
 4b4:	d9 f7       	brne	.-10     	; 0x4ac <__stack+0x4d>
  io_50ms();io_50ms();
}
 4b6:	08 95       	ret

000004b8 <delay>:
volatile unsigned  long jiffers=0;  //250us per jiffers


/*0-64 seconds*/
void delay(unsigned long ticks)
{
 4b8:	ef 92       	push	r14
 4ba:	ff 92       	push	r15
 4bc:	0f 93       	push	r16
 4be:	1f 93       	push	r17
 4c0:	9b 01       	movw	r18, r22
 4c2:	ac 01       	movw	r20, r24
  
   unsigned long long lt = jiffers;
 4c4:	80 91 81 00 	lds	r24, 0x0081
 4c8:	90 91 82 00 	lds	r25, 0x0082
 4cc:	a0 91 83 00 	lds	r26, 0x0083
 4d0:	b0 91 84 00 	lds	r27, 0x0084

   while(!timeafter(jiffers,(lt+ ticks)));
 4d4:	28 0f       	add	r18, r24
 4d6:	39 1f       	adc	r19, r25
 4d8:	4a 1f       	adc	r20, r26
 4da:	5b 1f       	adc	r21, r27
 4dc:	80 91 81 00 	lds	r24, 0x0081
 4e0:	90 91 82 00 	lds	r25, 0x0082
 4e4:	a0 91 83 00 	lds	r26, 0x0083
 4e8:	b0 91 84 00 	lds	r27, 0x0084
 4ec:	79 01       	movw	r14, r18
 4ee:	8a 01       	movw	r16, r20
 4f0:	e8 1a       	sub	r14, r24
 4f2:	f9 0a       	sbc	r15, r25
 4f4:	0a 0b       	sbc	r16, r26
 4f6:	1b 0b       	sbc	r17, r27
 4f8:	17 ff       	sbrs	r17, 7
 4fa:	f0 cf       	rjmp	.-32     	; 0x4dc <delay+0x24>
   
   return;

}
 4fc:	1f 91       	pop	r17
 4fe:	0f 91       	pop	r16
 500:	ff 90       	pop	r15
 502:	ef 90       	pop	r14
 504:	08 95       	ret

00000506 <hex2c>:


char hex2c(char hex)
{

   if(hex<0xa)
 506:	8a 30       	cpi	r24, 0x0A	; 10
 508:	10 f4       	brcc	.+4      	; 0x50e <hex2c+0x8>
      return '0'+hex;
 50a:	80 5d       	subi	r24, 0xD0	; 208
 50c:	08 95       	ret
   else
      return 'a'+hex-0xa;
 50e:	89 5a       	subi	r24, 0xA9	; 169
}
 510:	08 95       	ret

00000512 <printLL>:
	 lcd_putc( hex2c(n/10));
	 lcd_putc( hex2c(n%10));
}

void printLL(unsigned long n, char dot, char prec)
{
 512:	af 92       	push	r10
 514:	bf 92       	push	r11
 516:	cf 92       	push	r12
 518:	df 92       	push	r13
 51a:	ef 92       	push	r14
 51c:	ff 92       	push	r15
 51e:	0f 93       	push	r16
 520:	1f 93       	push	r17
 522:	7b 01       	movw	r14, r22
 524:	8c 01       	movw	r16, r24
 526:	d4 2e       	mov	r13, r20
 528:	a2 2e       	mov	r10, r18
     //irqoff();
	 char frac=0,sf=0;

	 lcd_putc(hex2c(n/10000000));
 52a:	20 e8       	ldi	r18, 0x80	; 128
 52c:	36 e9       	ldi	r19, 0x96	; 150
 52e:	48 e9       	ldi	r20, 0x98	; 152
 530:	50 e0       	ldi	r21, 0x00	; 0
 532:	51 d2       	rcall	.+1186   	; 0x9d6 <__udivmodsi4>


char hex2c(char hex)
{

   if(hex<0xa)
 534:	2a 30       	cpi	r18, 0x0A	; 10
 536:	18 f4       	brcc	.+6      	; 0x53e <printLL+0x2c>
      return '0'+hex;
 538:	82 2f       	mov	r24, r18
 53a:	80 5d       	subi	r24, 0xD0	; 208
 53c:	02 c0       	rjmp	.+4      	; 0x542 <printLL+0x30>
   else
      return 'a'+hex-0xa;
 53e:	82 2f       	mov	r24, r18
 540:	89 5a       	subi	r24, 0xA9	; 169
void printLL(unsigned long n, char dot, char prec)
{
     //irqoff();
	 char frac=0,sf=0;

	 lcd_putc(hex2c(n/10000000));
 542:	37 df       	rcall	.-402    	; 0x3b2 <lcd_putc>
	 n = n%10000000;
 544:	c8 01       	movw	r24, r16
 546:	b7 01       	movw	r22, r14
 548:	20 e8       	ldi	r18, 0x80	; 128
 54a:	36 e9       	ldi	r19, 0x96	; 150
 54c:	48 e9       	ldi	r20, 0x98	; 152
 54e:	50 e0       	ldi	r21, 0x00	; 0
 550:	42 d2       	rcall	.+1156   	; 0x9d6 <__udivmodsi4>
 552:	f6 2e       	mov	r15, r22
 554:	e7 2e       	mov	r14, r23
 556:	c8 2e       	mov	r12, r24
 558:	b9 2e       	mov	r11, r25
	 if(7==dot){
 55a:	87 e0       	ldi	r24, 0x07	; 7
 55c:	d8 16       	cp	r13, r24
 55e:	11 f0       	breq	.+4      	; 0x564 <printLL+0x52>
 560:	00 e0       	ldi	r16, 0x00	; 0
 562:	03 c0       	rjmp	.+6      	; 0x56a <printLL+0x58>
	 	lcd_putc('.');
 564:	8e e2       	ldi	r24, 0x2E	; 46
 566:	25 df       	rcall	.-438    	; 0x3b2 <lcd_putc>
 568:	01 e0       	ldi	r16, 0x01	; 1
		sf=1;
	 }
		     
     lcd_putc(hex2c(n/1000000));//M
 56a:	6f 2d       	mov	r22, r15
 56c:	7e 2d       	mov	r23, r14
 56e:	8c 2d       	mov	r24, r12
 570:	9b 2d       	mov	r25, r11
 572:	20 e4       	ldi	r18, 0x40	; 64
 574:	32 e4       	ldi	r19, 0x42	; 66
 576:	4f e0       	ldi	r20, 0x0F	; 15
 578:	50 e0       	ldi	r21, 0x00	; 0
 57a:	2d d2       	rcall	.+1114   	; 0x9d6 <__udivmodsi4>


char hex2c(char hex)
{

   if(hex<0xa)
 57c:	2a 30       	cpi	r18, 0x0A	; 10
 57e:	18 f4       	brcc	.+6      	; 0x586 <printLL+0x74>
      return '0'+hex;
 580:	82 2f       	mov	r24, r18
 582:	80 5d       	subi	r24, 0xD0	; 208
 584:	02 c0       	rjmp	.+4      	; 0x58a <printLL+0x78>
   else
      return 'a'+hex-0xa;
 586:	82 2f       	mov	r24, r18
 588:	89 5a       	subi	r24, 0xA9	; 169
	 if(7==dot){
	 	lcd_putc('.');
		sf=1;
	 }
		     
     lcd_putc(hex2c(n/1000000));//M
 58a:	13 df       	rcall	.-474    	; 0x3b2 <lcd_putc>
	 if(sf){frac++; if(frac>=prec)return;}
 58c:	00 23       	and	r16, r16
 58e:	11 f4       	brne	.+4      	; 0x594 <printLL+0x82>
 590:	10 e0       	ldi	r17, 0x00	; 0
 592:	05 c0       	rjmp	.+10     	; 0x59e <printLL+0x8c>
 594:	81 e0       	ldi	r24, 0x01	; 1
 596:	8a 15       	cp	r24, r10
 598:	08 f0       	brcs	.+2      	; 0x59c <printLL+0x8a>
 59a:	e8 c0       	rjmp	.+464    	; 0x76c <printLL+0x25a>
 59c:	11 e0       	ldi	r17, 0x01	; 1
	 
	 n = n%1000000;
 59e:	6f 2d       	mov	r22, r15
 5a0:	7e 2d       	mov	r23, r14
 5a2:	8c 2d       	mov	r24, r12
 5a4:	9b 2d       	mov	r25, r11
 5a6:	20 e4       	ldi	r18, 0x40	; 64
 5a8:	32 e4       	ldi	r19, 0x42	; 66
 5aa:	4f e0       	ldi	r20, 0x0F	; 15
 5ac:	50 e0       	ldi	r21, 0x00	; 0
 5ae:	13 d2       	rcall	.+1062   	; 0x9d6 <__udivmodsi4>
 5b0:	f6 2e       	mov	r15, r22
 5b2:	e7 2e       	mov	r14, r23
 5b4:	c8 2e       	mov	r12, r24
 5b6:	b9 2e       	mov	r11, r25
	 if(6==dot){
 5b8:	86 e0       	ldi	r24, 0x06	; 6
 5ba:	d8 16       	cp	r13, r24
 5bc:	19 f4       	brne	.+6      	; 0x5c4 <printLL+0xb2>
	 	lcd_putc('.');
 5be:	8e e2       	ldi	r24, 0x2E	; 46
 5c0:	f8 de       	rcall	.-528    	; 0x3b2 <lcd_putc>
 5c2:	01 e0       	ldi	r16, 0x01	; 1
		sf=1;
	 }
	
     
	 lcd_putc(hex2c(n/100000));
 5c4:	6f 2d       	mov	r22, r15
 5c6:	7e 2d       	mov	r23, r14
 5c8:	8c 2d       	mov	r24, r12
 5ca:	9b 2d       	mov	r25, r11
 5cc:	20 ea       	ldi	r18, 0xA0	; 160
 5ce:	36 e8       	ldi	r19, 0x86	; 134
 5d0:	41 e0       	ldi	r20, 0x01	; 1
 5d2:	50 e0       	ldi	r21, 0x00	; 0
 5d4:	00 d2       	rcall	.+1024   	; 0x9d6 <__udivmodsi4>


char hex2c(char hex)
{

   if(hex<0xa)
 5d6:	2a 30       	cpi	r18, 0x0A	; 10
 5d8:	18 f4       	brcc	.+6      	; 0x5e0 <printLL+0xce>
      return '0'+hex;
 5da:	82 2f       	mov	r24, r18
 5dc:	80 5d       	subi	r24, 0xD0	; 208
 5de:	02 c0       	rjmp	.+4      	; 0x5e4 <printLL+0xd2>
   else
      return 'a'+hex-0xa;
 5e0:	82 2f       	mov	r24, r18
 5e2:	89 5a       	subi	r24, 0xA9	; 169
	 	lcd_putc('.');
		sf=1;
	 }
	
     
	 lcd_putc(hex2c(n/100000));
 5e4:	e6 de       	rcall	.-564    	; 0x3b2 <lcd_putc>
	 if(sf){frac++; if(frac>=prec)return;}
 5e6:	00 23       	and	r16, r16
 5e8:	21 f0       	breq	.+8      	; 0x5f2 <printLL+0xe0>
 5ea:	1f 5f       	subi	r17, 0xFF	; 255
 5ec:	1a 15       	cp	r17, r10
 5ee:	08 f0       	brcs	.+2      	; 0x5f2 <printLL+0xe0>
 5f0:	bd c0       	rjmp	.+378    	; 0x76c <printLL+0x25a>
	 n = n%100000;
 5f2:	6f 2d       	mov	r22, r15
 5f4:	7e 2d       	mov	r23, r14
 5f6:	8c 2d       	mov	r24, r12
 5f8:	9b 2d       	mov	r25, r11
 5fa:	20 ea       	ldi	r18, 0xA0	; 160
 5fc:	36 e8       	ldi	r19, 0x86	; 134
 5fe:	41 e0       	ldi	r20, 0x01	; 1
 600:	50 e0       	ldi	r21, 0x00	; 0
 602:	e9 d1       	rcall	.+978    	; 0x9d6 <__udivmodsi4>
 604:	f6 2e       	mov	r15, r22
 606:	e7 2e       	mov	r14, r23
 608:	c8 2e       	mov	r12, r24
 60a:	b9 2e       	mov	r11, r25
	 if(5==dot){
 60c:	85 e0       	ldi	r24, 0x05	; 5
 60e:	d8 16       	cp	r13, r24
 610:	19 f4       	brne	.+6      	; 0x618 <printLL+0x106>
	 	lcd_putc('.');
 612:	8e e2       	ldi	r24, 0x2E	; 46
 614:	ce de       	rcall	.-612    	; 0x3b2 <lcd_putc>
 616:	01 e0       	ldi	r16, 0x01	; 1
		sf=1;
	 }
	

	 lcd_putc(hex2c(n/10000)); 
 618:	6f 2d       	mov	r22, r15
 61a:	7e 2d       	mov	r23, r14
 61c:	8c 2d       	mov	r24, r12
 61e:	9b 2d       	mov	r25, r11
 620:	20 e1       	ldi	r18, 0x10	; 16
 622:	37 e2       	ldi	r19, 0x27	; 39
 624:	40 e0       	ldi	r20, 0x00	; 0
 626:	50 e0       	ldi	r21, 0x00	; 0
 628:	d6 d1       	rcall	.+940    	; 0x9d6 <__udivmodsi4>


char hex2c(char hex)
{

   if(hex<0xa)
 62a:	2a 30       	cpi	r18, 0x0A	; 10
 62c:	18 f4       	brcc	.+6      	; 0x634 <printLL+0x122>
      return '0'+hex;
 62e:	82 2f       	mov	r24, r18
 630:	80 5d       	subi	r24, 0xD0	; 208
 632:	02 c0       	rjmp	.+4      	; 0x638 <printLL+0x126>
   else
      return 'a'+hex-0xa;
 634:	82 2f       	mov	r24, r18
 636:	89 5a       	subi	r24, 0xA9	; 169
	 	lcd_putc('.');
		sf=1;
	 }
	

	 lcd_putc(hex2c(n/10000)); 
 638:	bc de       	rcall	.-648    	; 0x3b2 <lcd_putc>
	  if(sf){frac++; if(frac>=prec)return;}
 63a:	00 23       	and	r16, r16
 63c:	21 f0       	breq	.+8      	; 0x646 <printLL+0x134>
 63e:	1f 5f       	subi	r17, 0xFF	; 255
 640:	1a 15       	cp	r17, r10
 642:	08 f0       	brcs	.+2      	; 0x646 <printLL+0x134>
 644:	93 c0       	rjmp	.+294    	; 0x76c <printLL+0x25a>
	 n = n%10000;
 646:	6f 2d       	mov	r22, r15
 648:	7e 2d       	mov	r23, r14
 64a:	8c 2d       	mov	r24, r12
 64c:	9b 2d       	mov	r25, r11
 64e:	20 e1       	ldi	r18, 0x10	; 16
 650:	37 e2       	ldi	r19, 0x27	; 39
 652:	40 e0       	ldi	r20, 0x00	; 0
 654:	50 e0       	ldi	r21, 0x00	; 0
 656:	bf d1       	rcall	.+894    	; 0x9d6 <__udivmodsi4>
 658:	f6 2e       	mov	r15, r22
 65a:	e7 2e       	mov	r14, r23
 65c:	c8 2e       	mov	r12, r24
 65e:	b9 2e       	mov	r11, r25
	 if(4==dot){
 660:	84 e0       	ldi	r24, 0x04	; 4
 662:	d8 16       	cp	r13, r24
 664:	19 f4       	brne	.+6      	; 0x66c <printLL+0x15a>
	 	sf=1;
	 	lcd_putc('.');
 666:	8e e2       	ldi	r24, 0x2E	; 46
 668:	a4 de       	rcall	.-696    	; 0x3b2 <lcd_putc>
 66a:	01 e0       	ldi	r16, 0x01	; 1
	 }
	
	 lcd_putc(hex2c(n/1000));  //K
 66c:	6f 2d       	mov	r22, r15
 66e:	7e 2d       	mov	r23, r14
 670:	8c 2d       	mov	r24, r12
 672:	9b 2d       	mov	r25, r11
 674:	28 ee       	ldi	r18, 0xE8	; 232
 676:	33 e0       	ldi	r19, 0x03	; 3
 678:	40 e0       	ldi	r20, 0x00	; 0
 67a:	50 e0       	ldi	r21, 0x00	; 0
 67c:	ac d1       	rcall	.+856    	; 0x9d6 <__udivmodsi4>


char hex2c(char hex)
{

   if(hex<0xa)
 67e:	2a 30       	cpi	r18, 0x0A	; 10
 680:	18 f4       	brcc	.+6      	; 0x688 <printLL+0x176>
      return '0'+hex;
 682:	82 2f       	mov	r24, r18
 684:	80 5d       	subi	r24, 0xD0	; 208
 686:	02 c0       	rjmp	.+4      	; 0x68c <printLL+0x17a>
   else
      return 'a'+hex-0xa;
 688:	82 2f       	mov	r24, r18
 68a:	89 5a       	subi	r24, 0xA9	; 169
	 if(4==dot){
	 	sf=1;
	 	lcd_putc('.');
	 }
	
	 lcd_putc(hex2c(n/1000));  //K
 68c:	92 de       	rcall	.-732    	; 0x3b2 <lcd_putc>
	  if(sf){frac++; if(frac>=prec)return;}
 68e:	00 23       	and	r16, r16
 690:	21 f0       	breq	.+8      	; 0x69a <printLL+0x188>
 692:	1f 5f       	subi	r17, 0xFF	; 255
 694:	1a 15       	cp	r17, r10
 696:	08 f0       	brcs	.+2      	; 0x69a <printLL+0x188>
 698:	69 c0       	rjmp	.+210    	; 0x76c <printLL+0x25a>
	 n = n%1000;
 69a:	6f 2d       	mov	r22, r15
 69c:	7e 2d       	mov	r23, r14
 69e:	8c 2d       	mov	r24, r12
 6a0:	9b 2d       	mov	r25, r11
 6a2:	28 ee       	ldi	r18, 0xE8	; 232
 6a4:	33 e0       	ldi	r19, 0x03	; 3
 6a6:	40 e0       	ldi	r20, 0x00	; 0
 6a8:	50 e0       	ldi	r21, 0x00	; 0
 6aa:	95 d1       	rcall	.+810    	; 0x9d6 <__udivmodsi4>
 6ac:	f6 2e       	mov	r15, r22
 6ae:	e7 2e       	mov	r14, r23
 6b0:	c8 2e       	mov	r12, r24
 6b2:	b9 2e       	mov	r11, r25
	 if(3==dot){
 6b4:	83 e0       	ldi	r24, 0x03	; 3
 6b6:	d8 16       	cp	r13, r24
 6b8:	19 f4       	brne	.+6      	; 0x6c0 <printLL+0x1ae>
	 	lcd_putc('.');
 6ba:	8e e2       	ldi	r24, 0x2E	; 46
 6bc:	7a de       	rcall	.-780    	; 0x3b2 <lcd_putc>
 6be:	01 e0       	ldi	r16, 0x01	; 1
		sf=1;
	  }
		   	
	 lcd_putc(hex2c(n/100));
 6c0:	6f 2d       	mov	r22, r15
 6c2:	7e 2d       	mov	r23, r14
 6c4:	8c 2d       	mov	r24, r12
 6c6:	9b 2d       	mov	r25, r11
 6c8:	24 e6       	ldi	r18, 0x64	; 100
 6ca:	30 e0       	ldi	r19, 0x00	; 0
 6cc:	40 e0       	ldi	r20, 0x00	; 0
 6ce:	50 e0       	ldi	r21, 0x00	; 0
 6d0:	82 d1       	rcall	.+772    	; 0x9d6 <__udivmodsi4>


char hex2c(char hex)
{

   if(hex<0xa)
 6d2:	2a 30       	cpi	r18, 0x0A	; 10
 6d4:	18 f4       	brcc	.+6      	; 0x6dc <printLL+0x1ca>
      return '0'+hex;
 6d6:	82 2f       	mov	r24, r18
 6d8:	80 5d       	subi	r24, 0xD0	; 208
 6da:	02 c0       	rjmp	.+4      	; 0x6e0 <printLL+0x1ce>
   else
      return 'a'+hex-0xa;
 6dc:	82 2f       	mov	r24, r18
 6de:	89 5a       	subi	r24, 0xA9	; 169
	 if(3==dot){
	 	lcd_putc('.');
		sf=1;
	  }
		   	
	 lcd_putc(hex2c(n/100));
 6e0:	68 de       	rcall	.-816    	; 0x3b2 <lcd_putc>
	  if(sf){frac++; if(frac>=prec)return;}
 6e2:	00 23       	and	r16, r16
 6e4:	21 f0       	breq	.+8      	; 0x6ee <printLL+0x1dc>
 6e6:	1f 5f       	subi	r17, 0xFF	; 255
 6e8:	1a 15       	cp	r17, r10
 6ea:	08 f0       	brcs	.+2      	; 0x6ee <printLL+0x1dc>
 6ec:	3f c0       	rjmp	.+126    	; 0x76c <printLL+0x25a>
	 n = n%100;
 6ee:	6f 2d       	mov	r22, r15
 6f0:	7e 2d       	mov	r23, r14
 6f2:	8c 2d       	mov	r24, r12
 6f4:	9b 2d       	mov	r25, r11
 6f6:	24 e6       	ldi	r18, 0x64	; 100
 6f8:	30 e0       	ldi	r19, 0x00	; 0
 6fa:	40 e0       	ldi	r20, 0x00	; 0
 6fc:	50 e0       	ldi	r21, 0x00	; 0
 6fe:	6b d1       	rcall	.+726    	; 0x9d6 <__udivmodsi4>
 700:	f6 2e       	mov	r15, r22
 702:	e7 2e       	mov	r14, r23
 704:	c8 2e       	mov	r12, r24
 706:	b9 2e       	mov	r11, r25
	 if(2==dot){
 708:	82 e0       	ldi	r24, 0x02	; 2
 70a:	d8 16       	cp	r13, r24
 70c:	19 f4       	brne	.+6      	; 0x714 <printLL+0x202>
	 	lcd_putc('.');
 70e:	8e e2       	ldi	r24, 0x2E	; 46
 710:	50 de       	rcall	.-864    	; 0x3b2 <lcd_putc>
 712:	01 e0       	ldi	r16, 0x01	; 1
		sf=1;
	 }
	 
	 lcd_putc( hex2c(n/10));
 714:	6f 2d       	mov	r22, r15
 716:	7e 2d       	mov	r23, r14
 718:	8c 2d       	mov	r24, r12
 71a:	9b 2d       	mov	r25, r11
 71c:	2a e0       	ldi	r18, 0x0A	; 10
 71e:	30 e0       	ldi	r19, 0x00	; 0
 720:	40 e0       	ldi	r20, 0x00	; 0
 722:	50 e0       	ldi	r21, 0x00	; 0
 724:	58 d1       	rcall	.+688    	; 0x9d6 <__udivmodsi4>


char hex2c(char hex)
{

   if(hex<0xa)
 726:	2a 30       	cpi	r18, 0x0A	; 10
 728:	18 f4       	brcc	.+6      	; 0x730 <printLL+0x21e>
      return '0'+hex;
 72a:	82 2f       	mov	r24, r18
 72c:	80 5d       	subi	r24, 0xD0	; 208
 72e:	02 c0       	rjmp	.+4      	; 0x734 <printLL+0x222>
   else
      return 'a'+hex-0xa;
 730:	82 2f       	mov	r24, r18
 732:	89 5a       	subi	r24, 0xA9	; 169
	 if(2==dot){
	 	lcd_putc('.');
		sf=1;
	 }
	 
	 lcd_putc( hex2c(n/10));
 734:	3e de       	rcall	.-900    	; 0x3b2 <lcd_putc>
	  if(sf){frac++; if(frac>=prec)return;}
 736:	00 23       	and	r16, r16
 738:	19 f0       	breq	.+6      	; 0x740 <printLL+0x22e>
 73a:	1f 5f       	subi	r17, 0xFF	; 255
 73c:	1a 15       	cp	r17, r10
 73e:	b0 f4       	brcc	.+44     	; 0x76c <printLL+0x25a>
	 if(1==dot){
 740:	81 e0       	ldi	r24, 0x01	; 1
 742:	d8 16       	cp	r13, r24
 744:	11 f4       	brne	.+4      	; 0x74a <printLL+0x238>
	 	sf=1;
	 	lcd_putc('.');
 746:	8e e2       	ldi	r24, 0x2E	; 46
 748:	34 de       	rcall	.-920    	; 0x3b2 <lcd_putc>
	 }
	 lcd_putc( hex2c(n%10));
 74a:	6f 2d       	mov	r22, r15
 74c:	7e 2d       	mov	r23, r14
 74e:	8c 2d       	mov	r24, r12
 750:	9b 2d       	mov	r25, r11
 752:	2a e0       	ldi	r18, 0x0A	; 10
 754:	30 e0       	ldi	r19, 0x00	; 0
 756:	40 e0       	ldi	r20, 0x00	; 0
 758:	50 e0       	ldi	r21, 0x00	; 0
 75a:	3d d1       	rcall	.+634    	; 0x9d6 <__udivmodsi4>


char hex2c(char hex)
{

   if(hex<0xa)
 75c:	6a 30       	cpi	r22, 0x0A	; 10
 75e:	18 f4       	brcc	.+6      	; 0x766 <printLL+0x254>
      return '0'+hex;
 760:	86 2f       	mov	r24, r22
 762:	80 5d       	subi	r24, 0xD0	; 208
 764:	02 c0       	rjmp	.+4      	; 0x76a <printLL+0x258>
   else
      return 'a'+hex-0xa;
 766:	86 2f       	mov	r24, r22
 768:	89 5a       	subi	r24, 0xA9	; 169
	  if(sf){frac++; if(frac>=prec)return;}
	 if(1==dot){
	 	sf=1;
	 	lcd_putc('.');
	 }
	 lcd_putc( hex2c(n%10));
 76a:	23 de       	rcall	.-954    	; 0x3b2 <lcd_putc>
	 if(sf){frac++; if(frac>=prec)return;}
}
 76c:	1f 91       	pop	r17
 76e:	0f 91       	pop	r16
 770:	ff 90       	pop	r15
 772:	ef 90       	pop	r14
 774:	df 90       	pop	r13
 776:	cf 90       	pop	r12
 778:	bf 90       	pop	r11
 77a:	af 90       	pop	r10
 77c:	08 95       	ret

0000077e <print10>:
      return 'a'+hex-0xa;
}


void print10(unsigned short n)
{
 77e:	0f 93       	push	r16
 780:	1f 93       	push	r17
 782:	cf 93       	push	r28
 784:	df 93       	push	r29
 786:	ec 01       	movw	r28, r24
     char x;
	 x=n/1000;
 788:	68 ee       	ldi	r22, 0xE8	; 232
 78a:	73 e0       	ldi	r23, 0x03	; 3
 78c:	10 d1       	rcall	.+544    	; 0x9ae <__udivmodhi4>
	 if(x)
 78e:	66 23       	and	r22, r22
 790:	41 f0       	breq	.+16     	; 0x7a2 <print10+0x24>


char hex2c(char hex)
{

   if(hex<0xa)
 792:	6a 30       	cpi	r22, 0x0A	; 10
 794:	18 f4       	brcc	.+6      	; 0x79c <print10+0x1e>
      return '0'+hex;
 796:	86 2f       	mov	r24, r22
 798:	80 5d       	subi	r24, 0xD0	; 208
 79a:	02 c0       	rjmp	.+4      	; 0x7a0 <print10+0x22>
   else
      return 'a'+hex-0xa;
 79c:	86 2f       	mov	r24, r22
 79e:	89 5a       	subi	r24, 0xA9	; 169
void print10(unsigned short n)
{
     char x;
	 x=n/1000;
	 if(x)
	    lcd_putc(hex2c(x));
 7a0:	08 de       	rcall	.-1008   	; 0x3b2 <lcd_putc>
	 n = n%1000;
 7a2:	ce 01       	movw	r24, r28
 7a4:	68 ee       	ldi	r22, 0xE8	; 232
 7a6:	73 e0       	ldi	r23, 0x03	; 3
 7a8:	02 d1       	rcall	.+516    	; 0x9ae <__udivmodhi4>
 7aa:	18 2f       	mov	r17, r24
 7ac:	09 2f       	mov	r16, r25

	 lcd_putc(hex2c(n/100));
 7ae:	64 e6       	ldi	r22, 0x64	; 100
 7b0:	70 e0       	ldi	r23, 0x00	; 0
 7b2:	fd d0       	rcall	.+506    	; 0x9ae <__udivmodhi4>


char hex2c(char hex)
{

   if(hex<0xa)
 7b4:	6a 30       	cpi	r22, 0x0A	; 10
 7b6:	18 f4       	brcc	.+6      	; 0x7be <print10+0x40>
      return '0'+hex;
 7b8:	86 2f       	mov	r24, r22
 7ba:	80 5d       	subi	r24, 0xD0	; 208
 7bc:	02 c0       	rjmp	.+4      	; 0x7c2 <print10+0x44>
   else
      return 'a'+hex-0xa;
 7be:	86 2f       	mov	r24, r22
 7c0:	89 5a       	subi	r24, 0xA9	; 169
	 x=n/1000;
	 if(x)
	    lcd_putc(hex2c(x));
	 n = n%1000;

	 lcd_putc(hex2c(n/100));
 7c2:	f7 dd       	rcall	.-1042   	; 0x3b2 <lcd_putc>
	 n = n%100;
 7c4:	81 2f       	mov	r24, r17
 7c6:	90 2f       	mov	r25, r16
 7c8:	64 e6       	ldi	r22, 0x64	; 100
 7ca:	70 e0       	ldi	r23, 0x00	; 0
 7cc:	f0 d0       	rcall	.+480    	; 0x9ae <__udivmodhi4>
 7ce:	18 2f       	mov	r17, r24
 7d0:	09 2f       	mov	r16, r25

	 lcd_putc( hex2c(n/10));
 7d2:	6a e0       	ldi	r22, 0x0A	; 10
 7d4:	70 e0       	ldi	r23, 0x00	; 0
 7d6:	eb d0       	rcall	.+470    	; 0x9ae <__udivmodhi4>


char hex2c(char hex)
{

   if(hex<0xa)
 7d8:	6a 30       	cpi	r22, 0x0A	; 10
 7da:	18 f4       	brcc	.+6      	; 0x7e2 <print10+0x64>
      return '0'+hex;
 7dc:	86 2f       	mov	r24, r22
 7de:	80 5d       	subi	r24, 0xD0	; 208
 7e0:	02 c0       	rjmp	.+4      	; 0x7e6 <print10+0x68>
   else
      return 'a'+hex-0xa;
 7e2:	86 2f       	mov	r24, r22
 7e4:	89 5a       	subi	r24, 0xA9	; 169
	 n = n%1000;

	 lcd_putc(hex2c(n/100));
	 n = n%100;

	 lcd_putc( hex2c(n/10));
 7e6:	e5 dd       	rcall	.-1078   	; 0x3b2 <lcd_putc>
	 lcd_putc( hex2c(n%10));
 7e8:	81 2f       	mov	r24, r17
 7ea:	90 2f       	mov	r25, r16
 7ec:	6a e0       	ldi	r22, 0x0A	; 10
 7ee:	70 e0       	ldi	r23, 0x00	; 0
 7f0:	de d0       	rcall	.+444    	; 0x9ae <__udivmodhi4>


char hex2c(char hex)
{

   if(hex<0xa)
 7f2:	8a 30       	cpi	r24, 0x0A	; 10
 7f4:	10 f4       	brcc	.+4      	; 0x7fa <print10+0x7c>
      return '0'+hex;
 7f6:	80 5d       	subi	r24, 0xD0	; 208
 7f8:	01 c0       	rjmp	.+2      	; 0x7fc <print10+0x7e>
   else
      return 'a'+hex-0xa;
 7fa:	89 5a       	subi	r24, 0xA9	; 169

	 lcd_putc(hex2c(n/100));
	 n = n%100;

	 lcd_putc( hex2c(n/10));
	 lcd_putc( hex2c(n%10));
 7fc:	da dd       	rcall	.-1100   	; 0x3b2 <lcd_putc>
}
 7fe:	df 91       	pop	r29
 800:	cf 91       	pop	r28
 802:	1f 91       	pop	r17
 804:	0f 91       	pop	r16
 806:	08 95       	ret

00000808 <__vector_9>:
 */

#ifdef METAL_CELL_TIMER0

ISR(TIMER0_OVF_vect) // 1/HZ interval
{
 808:	1f 92       	push	r1
 80a:	0f 92       	push	r0
 80c:	0f b6       	in	r0, 0x3f	; 63
 80e:	0f 92       	push	r0
 810:	11 24       	eor	r1, r1
 812:	8f 93       	push	r24
 814:	9f 93       	push	r25
 816:	af 93       	push	r26
 818:	bf 93       	push	r27


   jiffers++;
 81a:	80 91 81 00 	lds	r24, 0x0081
 81e:	90 91 82 00 	lds	r25, 0x0082
 822:	a0 91 83 00 	lds	r26, 0x0083
 826:	b0 91 84 00 	lds	r27, 0x0084
 82a:	01 96       	adiw	r24, 0x01	; 1
 82c:	a1 1d       	adc	r26, r1
 82e:	b1 1d       	adc	r27, r1
 830:	80 93 81 00 	sts	0x0081, r24
 834:	90 93 82 00 	sts	0x0082, r25
 838:	a0 93 83 00 	sts	0x0083, r26
 83c:	b0 93 84 00 	sts	0x0084, r27

   TCNT0  = TIMER0_TCN;
 840:	83 e6       	ldi	r24, 0x63	; 99
 842:	82 bf       	out	0x32, r24	; 50

   return;
} 
 844:	bf 91       	pop	r27
 846:	af 91       	pop	r26
 848:	9f 91       	pop	r25
 84a:	8f 91       	pop	r24
 84c:	0f 90       	pop	r0
 84e:	0f be       	out	0x3f, r0	; 63
 850:	0f 90       	pop	r0
 852:	1f 90       	pop	r1
 854:	18 95       	reti

00000856 <timer0_init>:
void timer0_init()
{

#if defined (__AVR_ATmega8__)
  //mega8 timer0 only used for count: always up to MAX (0xFF) and start again from 0
  TCCR0  =   (_bits8(0b11,CS00,CS02)) ; //clk(io)/64
 856:	83 e0       	ldi	r24, 0x03	; 3
 858:	83 bf       	out	0x33, r24	; 51
  TCNT0  = TIMER0_TCN; //1ms per interrupt
 85a:	83 e6       	ldi	r24, 0x63	; 99
 85c:	82 bf       	out	0x32, r24	; 50
 
  TIMSK |= _bits8(1,TOIE0,TOIE0); //enable overflow interrupt;
 85e:	89 b7       	in	r24, 0x39	; 57
 860:	81 60       	ori	r24, 0x01	; 1
 862:	89 bf       	out	0x39, r24	; 57
  
  //TIFR TOV0, clear by interrupt
   SFIOR |=  PSR10;
 864:	80 b7       	in	r24, 0x30	; 48
 866:	80 bf       	out	0x30, r24	; 48
   GTCCR  |=  PSRSYNC;
#else
   #error "cpu not support !"
#endif

}
 868:	08 95       	ret

0000086a <enable_timer0>:
void enable_timer0()
{
#if defined (__AVR_ATmega88__)
   TIMSK0 |= _bits8(1,TOIE0,TOIE0);;// enable interrupt;
#elif  defined (__AVR_ATmega8__)
   TIMSK |= _bits8(1,TOIE0,TOIE0);;// enable interrupt;
 86a:	89 b7       	in	r24, 0x39	; 57
 86c:	81 60       	ori	r24, 0x01	; 1
 86e:	89 bf       	out	0x39, r24	; 57
#else
   #error "cpu not support !"
#endif 

}
 870:	08 95       	ret

00000872 <disable_timer0>:
void disable_timer0()
{
#if defined (__AVR_ATmega88__)
    TIMSK0  &= ~_bits8(1,TOIE0,TOIE0);// enable interrupt;
#elif defined (__AVR_ATmega8__)
    TIMSK  &= ~_bits8(1,TOIE0,TOIE0);// enable interrupt;
 872:	89 b7       	in	r24, 0x39	; 57
 874:	8e 7f       	andi	r24, 0xFE	; 254
 876:	89 bf       	out	0x39, r24	; 57
#else
   #error "cpu not support !"
#endif
}
 878:	08 95       	ret

0000087a <i2c_shutdown>:

}

char i2c_shutdown()
{
   if(SCL()&&(!SDA())){ 
 87a:	9d 9b       	sbis	0x13, 5	; 19
 87c:	23 c0       	rjmp	.+70     	; 0x8c4 <i2c_shutdown+0x4a>
 87e:	9c 99       	sbic	0x13, 4	; 19
 880:	21 c0       	rjmp	.+66     	; 0x8c4 <i2c_shutdown+0x4a>
      while( SCL()&&(!SDA()) );
 882:	9d 9b       	sbis	0x13, 5	; 19
 884:	02 c0       	rjmp	.+4      	; 0x88a <i2c_shutdown+0x10>
 886:	9c 9b       	sbis	0x13, 4	; 19
 888:	fc cf       	rjmp	.-8      	; 0x882 <i2c_shutdown+0x8>
	  if(SCL()&&SDA()){
 88a:	9d 9b       	sbis	0x13, 5	; 19
 88c:	1b c0       	rjmp	.+54     	; 0x8c4 <i2c_shutdown+0x4a>
 88e:	9c 9b       	sbis	0x13, 4	; 19
 890:	19 c0       	rjmp	.+50     	; 0x8c4 <i2c_shutdown+0x4a>
 892:	84 ec       	ldi	r24, 0xC4	; 196
 894:	94 e0       	ldi	r25, 0x04	; 4
 896:	2a ef       	ldi	r18, 0xFA	; 250
 898:	30 e0       	ldi	r19, 0x00	; 0
 89a:	f9 01       	movw	r30, r18
 89c:	31 97       	sbiw	r30, 0x01	; 1
 89e:	f1 f7       	brne	.-4      	; 0x89c <i2c_shutdown+0x22>
		{
			// wait 1/10 ms
			_delay_loop_2(((F_CPU) / 4e3) / 10);
			__ticks --;
 8a0:	01 97       	sbiw	r24, 0x01	; 1
		__ticks = 1;
	else if (__tmp > 65535)
	{
		//	__ticks = requested delay in 1/10 ms
		__ticks = (uint16_t) (__ms * 10.0);
		while(__ticks)
 8a2:	d9 f7       	brne	.-10     	; 0x89a <i2c_shutdown+0x20>
 8a4:	84 ec       	ldi	r24, 0xC4	; 196
 8a6:	94 e0       	ldi	r25, 0x04	; 4
 8a8:	2a ef       	ldi	r18, 0xFA	; 250
 8aa:	30 e0       	ldi	r19, 0x00	; 0
 8ac:	f9 01       	movw	r30, r18
 8ae:	31 97       	sbiw	r30, 0x01	; 1
 8b0:	f1 f7       	brne	.-4      	; 0x8ae <i2c_shutdown+0x34>
		{
			// wait 1/10 ms
			_delay_loop_2(((F_CPU) / 4e3) / 10);
			__ticks --;
 8b2:	01 97       	sbiw	r24, 0x01	; 1
		__ticks = 1;
	else if (__tmp > 65535)
	{
		//	__ticks = requested delay in 1/10 ms
		__ticks = (uint16_t) (__ms * 10.0);
		while(__ticks)
 8b4:	d9 f7       	brne	.-10     	; 0x8ac <i2c_shutdown+0x32>
		_delay_ms(122);
	  	i2c_led_on();
		_delay_ms(122);
	  	i2c_led_off();
		
		i2c_idle();
 8b6:	80 91 85 00 	lds	r24, 0x0085
 8ba:	82 60       	ori	r24, 0x02	; 2
 8bc:	80 93 85 00 	sts	0x0085, r24
 8c0:	80 e0       	ldi	r24, 0x00	; 0
 8c2:	08 95       	ret
	    return 0;
 8c4:	81 e0       	ldi	r24, 0x01	; 1
	  }
   }
   return 1;
}
 8c6:	08 95       	ret

000008c8 <i2c_wakeup>:

char i2c_wakeup()
{
  if(SCL()&&SDA()){
 8c8:	9d 9b       	sbis	0x13, 5	; 19
 8ca:	0c c0       	rjmp	.+24     	; 0x8e4 <i2c_wakeup+0x1c>
 8cc:	9c 9b       	sbis	0x13, 4	; 19
 8ce:	0a c0       	rjmp	.+20     	; 0x8e4 <i2c_wakeup+0x1c>
      while(SCL()&&SDA());
 8d0:	9d 9b       	sbis	0x13, 5	; 19
 8d2:	02 c0       	rjmp	.+4      	; 0x8d8 <i2c_wakeup+0x10>
 8d4:	9c 99       	sbic	0x13, 4	; 19
 8d6:	fc cf       	rjmp	.-8      	; 0x8d0 <i2c_wakeup+0x8>
	  if( SCL()&&(!SDA()) ){
 8d8:	9d 9b       	sbis	0x13, 5	; 19
 8da:	04 c0       	rjmp	.+8      	; 0x8e4 <i2c_wakeup+0x1c>
 8dc:	83 b3       	in	r24, 0x13	; 19
 8de:	82 95       	swap	r24
 8e0:	81 70       	andi	r24, 0x01	; 1
 8e2:	08 95       	ret
 8e4:	81 e0       	ldi	r24, 0x01	; 1
	  }
	  //while(i2c_shutdown());
	  //SCL :high, SDA:low
   }
   return 1; //need wait...
}
 8e6:	08 95       	ret

000008e8 <i2c_receive_address>:


char i2c_receive_address()
{
 8e8:	0f 93       	push	r16
 8ea:	1f 93       	push	r17
   unsigned char addr=0;
   signed char i = 7; 
   while(SCL()); //after start ...
 8ec:	9d 99       	sbic	0x13, 5	; 19
 8ee:	fe cf       	rjmp	.-4      	; 0x8ec <i2c_receive_address+0x4>
 8f0:	00 e0       	ldi	r16, 0x00	; 0
 8f2:	27 e0       	ldi	r18, 0x07	; 7
 8f4:	30 e0       	ldi	r19, 0x00	; 0
   //mast set bit 1
   for(i=7;i>=0;i--){
   		while(!SCL());//wait master
		//SCL up, get bit 
		if(SDA())
			addr |= 1<<i;
 8f6:	41 e0       	ldi	r20, 0x01	; 1
 8f8:	50 e0       	ldi	r21, 0x00	; 0
   unsigned char addr=0;
   signed char i = 7; 
   while(SCL()); //after start ...
   //mast set bit 1
   for(i=7;i>=0;i--){
   		while(!SCL());//wait master
 8fa:	9d 9b       	sbis	0x13, 5	; 19
 8fc:	fe cf       	rjmp	.-4      	; 0x8fa <i2c_receive_address+0x12>
		//SCL up, get bit 
		if(SDA())
 8fe:	9c 9b       	sbis	0x13, 4	; 19
 900:	08 c0       	rjmp	.+16     	; 0x912 <i2c_receive_address+0x2a>
			addr |= 1<<i;
 902:	ca 01       	movw	r24, r20
 904:	02 2e       	mov	r0, r18
 906:	02 c0       	rjmp	.+4      	; 0x90c <i2c_receive_address+0x24>
 908:	88 0f       	add	r24, r24
 90a:	99 1f       	adc	r25, r25
 90c:	0a 94       	dec	r0
 90e:	e2 f7       	brpl	.-8      	; 0x908 <i2c_receive_address+0x20>
 910:	08 2b       	or	r16, r24
   		while(SCL());
 912:	9d 99       	sbic	0x13, 5	; 19
 914:	fe cf       	rjmp	.-4      	; 0x912 <i2c_receive_address+0x2a>
 916:	21 50       	subi	r18, 0x01	; 1
 918:	30 40       	sbci	r19, 0x00	; 0
{
   unsigned char addr=0;
   signed char i = 7; 
   while(SCL()); //after start ...
   //mast set bit 1
   for(i=7;i>=0;i--){
 91a:	8f ef       	ldi	r24, 0xFF	; 255
 91c:	2f 3f       	cpi	r18, 0xFF	; 255
 91e:	38 07       	cpc	r19, r24
 920:	61 f7       	brne	.-40     	; 0x8fa <i2c_receive_address+0x12>
   		while(SCL());
		
   }

    //Sent back ACK
	HOLD_SCL(); //clock strench
 922:	85 e3       	ldi	r24, 0x35	; 53
 924:	90 e0       	ldi	r25, 0x00	; 0
 926:	61 e0       	ldi	r22, 0x01	; 1
 928:	45 e0       	ldi	r20, 0x05	; 5
 92a:	25 e0       	ldi	r18, 0x05	; 5
 92c:	f6 db       	rcall	.-2068   	; 0x11a <__port_mode>
	SCL_L();
 92e:	ad 98       	cbi	0x15, 5	; 21
  
  	lcd_cursor(0,1);
 930:	80 e0       	ldi	r24, 0x00	; 0
 932:	90 e0       	ldi	r25, 0x00	; 0
 934:	61 e0       	ldi	r22, 0x01	; 1
 936:	70 e0       	ldi	r23, 0x00	; 0
 938:	62 dd       	rcall	.-1340   	; 0x3fe <lcd_cursor>
   	lcd_puts("i2c_addr:0x");
 93a:	80 e6       	ldi	r24, 0x60	; 96
 93c:	90 e0       	ldi	r25, 0x00	; 0
 93e:	52 dd       	rcall	.-1372   	; 0x3e4 <lcd_puts>
    //	printhex(addr);
     print10(addr);
 940:	80 2f       	mov	r24, r16
 942:	90 e0       	ldi	r25, 0x00	; 0
 944:	1c df       	rcall	.-456    	; 0x77e <print10>

    if(addr == 0x55)
      i2c_led_off();
   
    if( addr&0x1)
 946:	00 ff       	sbrs	r16, 0
 948:	03 c0       	rjmp	.+6      	; 0x950 <i2c_receive_address+0x68>
   		lcd_puts(" w");
 94a:	8c e6       	ldi	r24, 0x6C	; 108
 94c:	90 e0       	ldi	r25, 0x00	; 0
 94e:	02 c0       	rjmp	.+4      	; 0x954 <i2c_receive_address+0x6c>
    else 
   		lcd_puts(" r");
 950:	8f e6       	ldi	r24, 0x6F	; 111
 952:	90 e0       	ldi	r25, 0x00	; 0
 954:	47 dd       	rcall	.-1394   	; 0x3e4 <lcd_puts>

   
    //SENT_BACK ACK 
	SDA_L(); 
 956:	ac 98       	cbi	0x15, 4	; 21
	RELE_SCL();
 958:	85 e3       	ldi	r24, 0x35	; 53
 95a:	90 e0       	ldi	r25, 0x00	; 0
 95c:	60 e0       	ldi	r22, 0x00	; 0
 95e:	45 e0       	ldi	r20, 0x05	; 5
 960:	25 e0       	ldi	r18, 0x05	; 5
 962:	db db       	rcall	.-2122   	; 0x11a <__port_mode>
	//else
	  //;   
	//while(SCL());
    
  
}
 964:	80 2f       	mov	r24, r16
 966:	1f 91       	pop	r17
 968:	0f 91       	pop	r16
 96a:	08 95       	ret

0000096c <i2c_init>:

char clk = 0;

void i2c_init()
{
  _pin_mode(I2C_PORT,I2C_SCL,INPUT);
 96c:	85 e3       	ldi	r24, 0x35	; 53
 96e:	90 e0       	ldi	r25, 0x00	; 0
 970:	60 e0       	ldi	r22, 0x00	; 0
 972:	45 e0       	ldi	r20, 0x05	; 5
 974:	25 e0       	ldi	r18, 0x05	; 5
 976:	d1 db       	rcall	.-2142   	; 0x11a <__port_mode>
  _pin_mode(I2C_PORT,I2C_SDA,INPUT);
 978:	85 e3       	ldi	r24, 0x35	; 53
 97a:	90 e0       	ldi	r25, 0x00	; 0
 97c:	60 e0       	ldi	r22, 0x00	; 0
 97e:	44 e0       	ldi	r20, 0x04	; 4
 980:	24 e0       	ldi	r18, 0x04	; 4
 982:	cb db       	rcall	.-2154   	; 0x11a <__port_mode>
  i2c_led_off();

}
 984:	08 95       	ret

00000986 <i2c_demo>:
  
}

i2c_demo()
{
   i2c_init();
 986:	f2 df       	rcall	.-28     	; 0x96c <i2c_init>
   lcd_cursor(0,0);
 988:	80 e0       	ldi	r24, 0x00	; 0
 98a:	90 e0       	ldi	r25, 0x00	; 0
 98c:	60 e0       	ldi	r22, 0x00	; 0
 98e:	70 e0       	ldi	r23, 0x00	; 0
 990:	36 dd       	rcall	.-1428   	; 0x3fe <lcd_cursor>
   lcd_puts("i2c slave 0x");
 992:	82 e7       	ldi	r24, 0x72	; 114
 994:	90 e0       	ldi	r25, 0x00	; 0
 996:	26 dd       	rcall	.-1460   	; 0x3e4 <lcd_puts>
   //print16(0xA2);
    print10(0xA2);
 998:	82 ea       	ldi	r24, 0xA2	; 162
 99a:	90 e0       	ldi	r25, 0x00	; 0
 99c:	f0 de       	rcall	.-544    	; 0x77e <print10>

   char addr=0;
	while (1){
		while(i2c_wakeup());
 99e:	94 df       	rcall	.-216    	; 0x8c8 <i2c_wakeup>
 9a0:	88 23       	and	r24, r24
 9a2:	e9 f7       	brne	.-6      	; 0x99e <i2c_demo+0x18>
		addr=i2c_receive_address();
 9a4:	a1 df       	rcall	.-190    	; 0x8e8 <i2c_receive_address>
 		while(i2c_shutdown());
 9a6:	69 df       	rcall	.-302    	; 0x87a <i2c_shutdown>
 9a8:	88 23       	and	r24, r24
 9aa:	e9 f7       	brne	.-6      	; 0x9a6 <i2c_demo+0x20>
 9ac:	f8 cf       	rjmp	.-16     	; 0x99e <i2c_demo+0x18>

000009ae <__udivmodhi4>:
 9ae:	aa 1b       	sub	r26, r26
 9b0:	bb 1b       	sub	r27, r27
 9b2:	51 e1       	ldi	r21, 0x11	; 17
 9b4:	07 c0       	rjmp	.+14     	; 0x9c4 <__udivmodhi4_ep>

000009b6 <__udivmodhi4_loop>:
 9b6:	aa 1f       	adc	r26, r26
 9b8:	bb 1f       	adc	r27, r27
 9ba:	a6 17       	cp	r26, r22
 9bc:	b7 07       	cpc	r27, r23
 9be:	10 f0       	brcs	.+4      	; 0x9c4 <__udivmodhi4_ep>
 9c0:	a6 1b       	sub	r26, r22
 9c2:	b7 0b       	sbc	r27, r23

000009c4 <__udivmodhi4_ep>:
 9c4:	88 1f       	adc	r24, r24
 9c6:	99 1f       	adc	r25, r25
 9c8:	5a 95       	dec	r21
 9ca:	a9 f7       	brne	.-22     	; 0x9b6 <__udivmodhi4_loop>
 9cc:	80 95       	com	r24
 9ce:	90 95       	com	r25
 9d0:	bc 01       	movw	r22, r24
 9d2:	cd 01       	movw	r24, r26
 9d4:	08 95       	ret

000009d6 <__udivmodsi4>:
 9d6:	a1 e2       	ldi	r26, 0x21	; 33
 9d8:	1a 2e       	mov	r1, r26
 9da:	aa 1b       	sub	r26, r26
 9dc:	bb 1b       	sub	r27, r27
 9de:	fd 01       	movw	r30, r26
 9e0:	0d c0       	rjmp	.+26     	; 0x9fc <__udivmodsi4_ep>

000009e2 <__udivmodsi4_loop>:
 9e2:	aa 1f       	adc	r26, r26
 9e4:	bb 1f       	adc	r27, r27
 9e6:	ee 1f       	adc	r30, r30
 9e8:	ff 1f       	adc	r31, r31
 9ea:	a2 17       	cp	r26, r18
 9ec:	b3 07       	cpc	r27, r19
 9ee:	e4 07       	cpc	r30, r20
 9f0:	f5 07       	cpc	r31, r21
 9f2:	20 f0       	brcs	.+8      	; 0x9fc <__udivmodsi4_ep>
 9f4:	a2 1b       	sub	r26, r18
 9f6:	b3 0b       	sbc	r27, r19
 9f8:	e4 0b       	sbc	r30, r20
 9fa:	f5 0b       	sbc	r31, r21

000009fc <__udivmodsi4_ep>:
 9fc:	66 1f       	adc	r22, r22
 9fe:	77 1f       	adc	r23, r23
 a00:	88 1f       	adc	r24, r24
 a02:	99 1f       	adc	r25, r25
 a04:	1a 94       	dec	r1
 a06:	69 f7       	brne	.-38     	; 0x9e2 <__udivmodsi4_loop>
 a08:	60 95       	com	r22
 a0a:	70 95       	com	r23
 a0c:	80 95       	com	r24
 a0e:	90 95       	com	r25
 a10:	9b 01       	movw	r18, r22
 a12:	ac 01       	movw	r20, r24
 a14:	bd 01       	movw	r22, r26
 a16:	cf 01       	movw	r24, r30
 a18:	08 95       	ret

00000a1a <_exit>:
 a1a:	f8 94       	cli

00000a1c <__stop_program>:
 a1c:	ff cf       	rjmp	.-2      	; 0xa1c <__stop_program>
