
i-charger-m8.elf:     file format elf32-avr

Sections:
Idx Name          Size      VMA       LMA       File off  Algn
  0 .text         000004c4  00000000  00000000  00000094  2**0
                  CONTENTS, ALLOC, LOAD, READONLY, CODE
  1 .data         00000020  00800060  000004c4  00000558  2**0
                  CONTENTS, ALLOC, LOAD, DATA
  2 .bss          00000001  00800080  00800080  00000578  2**0
                  ALLOC
  3 .noinit       00000000  00800081  00800081  00000578  2**0
                  CONTENTS
  4 .eeprom       00000000  00810000  00810000  00000578  2**0
                  CONTENTS
  5 .stab         0000036c  00000000  00000000  00000578  2**2
                  CONTENTS, READONLY, DEBUGGING
  6 .stabstr      00000084  00000000  00000000  000008e4  2**0
                  CONTENTS, READONLY, DEBUGGING
  7 .debug_aranges 00000078  00000000  00000000  00000968  2**0
                  CONTENTS, READONLY, DEBUGGING
  8 .debug_pubnames 00000183  00000000  00000000  000009e0  2**0
                  CONTENTS, READONLY, DEBUGGING
  9 .debug_info   000010d2  00000000  00000000  00000b63  2**0
                  CONTENTS, READONLY, DEBUGGING
 10 .debug_abbrev 000005ca  00000000  00000000  00001c35  2**0
                  CONTENTS, READONLY, DEBUGGING
 11 .debug_line   0000082c  00000000  00000000  000021ff  2**0
                  CONTENTS, READONLY, DEBUGGING
 12 .debug_str    00000212  00000000  00000000  00002a2b  2**0
                  CONTENTS, READONLY, DEBUGGING
Disassembly of section .text:

00000000 <__vectors>:
   0:	12 c0       	rjmp	.+36     	; 0x26 <__ctors_end>
   2:	2b c0       	rjmp	.+86     	; 0x5a <__bad_interrupt>
   4:	2a c0       	rjmp	.+84     	; 0x5a <__bad_interrupt>
   6:	29 c0       	rjmp	.+82     	; 0x5a <__bad_interrupt>
   8:	28 c0       	rjmp	.+80     	; 0x5a <__bad_interrupt>
   a:	27 c0       	rjmp	.+78     	; 0x5a <__bad_interrupt>
   c:	26 c0       	rjmp	.+76     	; 0x5a <__bad_interrupt>
   e:	25 c0       	rjmp	.+74     	; 0x5a <__bad_interrupt>
  10:	24 c0       	rjmp	.+72     	; 0x5a <__bad_interrupt>
  12:	23 c0       	rjmp	.+70     	; 0x5a <__bad_interrupt>
  14:	22 c0       	rjmp	.+68     	; 0x5a <__bad_interrupt>
  16:	21 c0       	rjmp	.+66     	; 0x5a <__bad_interrupt>
  18:	20 c0       	rjmp	.+64     	; 0x5a <__bad_interrupt>
  1a:	1f c0       	rjmp	.+62     	; 0x5a <__bad_interrupt>
  1c:	1e c0       	rjmp	.+60     	; 0x5a <__bad_interrupt>
  1e:	1d c0       	rjmp	.+58     	; 0x5a <__bad_interrupt>
  20:	1c c0       	rjmp	.+56     	; 0x5a <__bad_interrupt>
  22:	1b c0       	rjmp	.+54     	; 0x5a <__bad_interrupt>
  24:	1a c0       	rjmp	.+52     	; 0x5a <__bad_interrupt>

00000026 <__ctors_end>:
  26:	11 24       	eor	r1, r1
  28:	1f be       	out	0x3f, r1	; 63
  2a:	cf e5       	ldi	r28, 0x5F	; 95
  2c:	d4 e0       	ldi	r29, 0x04	; 4
  2e:	de bf       	out	0x3e, r29	; 62
  30:	cd bf       	out	0x3d, r28	; 61

00000032 <__do_copy_data>:
  32:	10 e0       	ldi	r17, 0x00	; 0
  34:	a0 e6       	ldi	r26, 0x60	; 96
  36:	b0 e0       	ldi	r27, 0x00	; 0
  38:	e4 ec       	ldi	r30, 0xC4	; 196
  3a:	f4 e0       	ldi	r31, 0x04	; 4
  3c:	02 c0       	rjmp	.+4      	; 0x42 <.do_copy_data_start>

0000003e <.do_copy_data_loop>:
  3e:	05 90       	lpm	r0, Z+
  40:	0d 92       	st	X+, r0

00000042 <.do_copy_data_start>:
  42:	a0 38       	cpi	r26, 0x80	; 128
  44:	b1 07       	cpc	r27, r17
  46:	d9 f7       	brne	.-10     	; 0x3e <.do_copy_data_loop>

00000048 <__do_clear_bss>:
  48:	10 e0       	ldi	r17, 0x00	; 0
  4a:	a0 e8       	ldi	r26, 0x80	; 128
  4c:	b0 e0       	ldi	r27, 0x00	; 0
  4e:	01 c0       	rjmp	.+2      	; 0x52 <.do_clear_bss_start>

00000050 <.do_clear_bss_loop>:
  50:	1d 92       	st	X+, r1

00000052 <.do_clear_bss_start>:
  52:	a1 38       	cpi	r26, 0x81	; 129
  54:	b1 07       	cpc	r27, r17
  56:	e1 f7       	brne	.-8      	; 0x50 <.do_clear_bss_loop>
  58:	1d c0       	rjmp	.+58     	; 0x94 <main>

0000005a <__bad_interrupt>:
  5a:	d2 cf       	rjmp	.-92     	; 0x0 <__vectors>

0000005c <keydown>:


char keydown()
{
   _test_key(KEY2);
  5c:	83 99       	sbic	0x10, 3	; 16
  5e:	09 c0       	rjmp	.+18     	; 0x72 <keydown+0x16>
		__ticks = 1;
	else if (__tmp > 65535)
		__ticks = 0;	/* i.e. 65536 */
	else
		__ticks = (uint16_t)__tmp;
  60:	88 e5       	ldi	r24, 0x58	; 88
  62:	9b e1       	ldi	r25, 0x1B	; 27
  64:	01 97       	sbiw	r24, 0x01	; 1
  66:	f1 f7       	brne	.-4      	; 0x64 <keydown+0x8>
  68:	83 99       	sbic	0x10, 3	; 16
  6a:	03 c0       	rjmp	.+6      	; 0x72 <keydown+0x16>
  6c:	81 e0       	ldi	r24, 0x01	; 1
  6e:	90 e0       	ldi	r25, 0x00	; 0
  70:	08 95       	ret
  72:	80 e0       	ldi	r24, 0x00	; 0
  74:	90 e0       	ldi	r25, 0x00	; 0
}
  76:	08 95       	ret

00000078 <keyup>:
char keyup()
{
   _test_key(KEY1);
  78:	82 99       	sbic	0x10, 2	; 16
  7a:	09 c0       	rjmp	.+18     	; 0x8e <keyup+0x16>
		__ticks = 1;
	else if (__tmp > 65535)
		__ticks = 0;	/* i.e. 65536 */
	else
		__ticks = (uint16_t)__tmp;
  7c:	88 e5       	ldi	r24, 0x58	; 88
  7e:	9b e1       	ldi	r25, 0x1B	; 27
  80:	01 97       	sbiw	r24, 0x01	; 1
  82:	f1 f7       	brne	.-4      	; 0x80 <keyup+0x8>
  84:	82 99       	sbic	0x10, 2	; 16
  86:	03 c0       	rjmp	.+6      	; 0x8e <keyup+0x16>
  88:	81 e0       	ldi	r24, 0x01	; 1
  8a:	90 e0       	ldi	r25, 0x00	; 0
  8c:	08 95       	ret
  8e:	80 e0       	ldi	r24, 0x00	; 0
  90:	90 e0       	ldi	r25, 0x00	; 0
}
  92:	08 95       	ret

00000094 <main>:

unsigned char duty=128; 
char i=0;

int main()
{
  94:	cf e5       	ldi	r28, 0x5F	; 95
  96:	d4 e0       	ldi	r29, 0x04	; 4
  98:	de bf       	out	0x3e, r29	; 62
  9a:	cd bf       	out	0x3d, r28	; 61

    led_init();
  9c:	56 d0       	rcall	.+172    	; 0x14a <led_init>
    _key_init();	
  9e:	22 e0       	ldi	r18, 0x02	; 2
  a0:	42 2f       	mov	r20, r18
  a2:	60 e0       	ldi	r22, 0x00	; 0
  a4:	82 e3       	ldi	r24, 0x32	; 50
  a6:	90 e0       	ldi	r25, 0x00	; 0
  a8:	0b d1       	rcall	.+534    	; 0x2c0 <__set_port_mode>
  aa:	23 e0       	ldi	r18, 0x03	; 3
  ac:	42 2f       	mov	r20, r18
  ae:	60 e0       	ldi	r22, 0x00	; 0
  b0:	82 e3       	ldi	r24, 0x32	; 50
  b2:	90 e0       	ldi	r25, 0x00	; 0
  b4:	05 d1       	rcall	.+522    	; 0x2c0 <__set_port_mode>

    
	pwm_init();
  b6:	a1 d0       	rcall	.+322    	; 0x1fa <pwm_init>
    //init_74hc595();
    
	
	while (1){
	 
	 
	    //write_74hc595(i++);
	
	
        //sharp_flash();
	    //pwm_demo();
        if( keydown()){
  b8:	d1 df       	rcall	.-94     	; 0x5c <keydown>
  ba:	88 23       	and	r24, r24
  bc:	09 f1       	breq	.+66     	; 0x100 <main+0x6c>
	
	        lcd1602_init();
  be:	87 d1       	rcall	.+782    	; 0x3ce <lcd1602_init>
			lcd_cursor(1,0);
  c0:	60 e0       	ldi	r22, 0x00	; 0
  c2:	70 e0       	ldi	r23, 0x00	; 0
  c4:	81 e0       	ldi	r24, 0x01	; 1
  c6:	90 e0       	ldi	r25, 0x00	; 0
  c8:	ba d1       	rcall	.+884    	; 0x43e <lcd_cursor>
		    lcd_puts("***Digital TOY");
  ca:	81 e6       	ldi	r24, 0x61	; 97
  cc:	90 e0       	ldi	r25, 0x00	; 0
  ce:	c3 d1       	rcall	.+902    	; 0x456 <lcd_puts>
			lcd_scroll(-1);
  d0:	8f ef       	ldi	r24, 0xFF	; 255
  d2:	9f ef       	ldi	r25, 0xFF	; 255
  d4:	d2 d1       	rcall	.+932    	; 0x47a <lcd_scroll>
	
		  //_set_bit(PORTB,1);
		  duty-=2;
  d6:	80 91 60 00 	lds	r24, 0x0060
  da:	82 50       	subi	r24, 0x02	; 2
  dc:	80 93 60 00 	sts	0x0060, r24

 		  pwm_setduty(duty);
  e0:	9d d0       	rcall	.+314    	; 0x21c <pwm_setduty>
		  if(duty>=0xFF)
  e2:	80 91 60 00 	lds	r24, 0x0060
  e6:	8f 3f       	cpi	r24, 0xFF	; 255
  e8:	11 f4       	brne	.+4      	; 0xee <main+0x5a>
		     duty=0;
  ea:	10 92 60 00 	sts	0x0060, r1
          _clear_bit(PORTD,1);
  ee:	91 98       	cbi	0x12, 1	; 18
		__ticks = 1;
	else if (__tmp > 65535)
		__ticks = 0;	/* i.e. 65536 */
	else
		__ticks = (uint16_t)__tmp;
  f0:	88 e9       	ldi	r24, 0x98	; 152
  f2:	9a e3       	ldi	r25, 0x3A	; 58
  f4:	fc 01       	movw	r30, r24
  f6:	31 97       	sbiw	r30, 0x01	; 1
  f8:	f1 f7       	brne	.-4      	; 0xf6 <main+0x62>
		  _delay_ms(15);  
		  _set_bit(PORTD,1);
  fa:	91 9a       	sbi	0x12, 1	; 18
 */
void
_delay_loop_2(uint16_t __count)
{
	__asm__ volatile (
  fc:	01 97       	sbiw	r24, 0x01	; 1
  fe:	f1 f7       	brne	.-4      	; 0xfc <main+0x68>
		  _delay_ms(15);  

		 }  
		 if( keyup()){
 100:	bb df       	rcall	.-138    	; 0x78 <keyup>
 102:	88 23       	and	r24, r24
 104:	c9 f2       	breq	.-78     	; 0xb8 <main+0x24>
	        lcd1602_init();
 106:	63 d1       	rcall	.+710    	; 0x3ce <lcd1602_init>
			lcd_cursor(1,1);
 108:	61 e0       	ldi	r22, 0x01	; 1
 10a:	70 e0       	ldi	r23, 0x00	; 0
 10c:	cb 01       	movw	r24, r22
 10e:	97 d1       	rcall	.+814    	; 0x43e <lcd_cursor>
		    lcd_puts("Welcom Atmega8");
 110:	80 e7       	ldi	r24, 0x70	; 112
 112:	90 e0       	ldi	r25, 0x00	; 0
 114:	a0 d1       	rcall	.+832    	; 0x456 <lcd_puts>
			lcd_scroll(1);
 116:	81 e0       	ldi	r24, 0x01	; 1
 118:	90 e0       	ldi	r25, 0x00	; 0
 11a:	af d1       	rcall	.+862    	; 0x47a <lcd_scroll>
		  //_set_bit(PORTB,1);
		  duty+=2;
 11c:	80 91 60 00 	lds	r24, 0x0060
 120:	8e 5f       	subi	r24, 0xFE	; 254
 122:	80 93 60 00 	sts	0x0060, r24

 		  pwm_setduty(duty);
 126:	7a d0       	rcall	.+244    	; 0x21c <pwm_setduty>
		  if(duty<=0)
 128:	80 91 60 00 	lds	r24, 0x0060
 12c:	88 23       	and	r24, r24
 12e:	19 f4       	brne	.+6      	; 0x136 <main+0xa2>
		     duty=0xFF;
 130:	8f ef       	ldi	r24, 0xFF	; 255
 132:	80 93 60 00 	sts	0x0060, r24
          _clear_bit(PORTD,0);
 136:	90 98       	cbi	0x12, 0	; 18
		__ticks = 1;
	else if (__tmp > 65535)
		__ticks = 0;	/* i.e. 65536 */
	else
		__ticks = (uint16_t)__tmp;
 138:	88 e9       	ldi	r24, 0x98	; 152
 13a:	9a e3       	ldi	r25, 0x3A	; 58
 13c:	fc 01       	movw	r30, r24
 13e:	31 97       	sbiw	r30, 0x01	; 1
 140:	f1 f7       	brne	.-4      	; 0x13e <main+0xaa>
		  _delay_ms(15);  
		 _set_bit(PORTD,0);
 142:	90 9a       	sbi	0x12, 0	; 18
 */
void
_delay_loop_2(uint16_t __count)
{
	__asm__ volatile (
 144:	01 97       	sbiw	r24, 0x01	; 1
 146:	f1 f7       	brne	.-4      	; 0x144 <main+0xb0>
 148:	b7 cf       	rjmp	.-146    	; 0xb8 <main+0x24>

0000014a <led_init>:



void led_init()
{
 14a:	cf 93       	push	r28
 14c:	c2 e0       	ldi	r28, 0x02	; 2
	/* 往前步进 */
    char i;
		for (i = 0; i < 3; i++){

			_port_modenm(LED_PORT,0,1,OUTPUT);//_nm8(0b11,0,1);
 14e:	21 e0       	ldi	r18, 0x01	; 1
 150:	40 e0       	ldi	r20, 0x00	; 0
 152:	62 2f       	mov	r22, r18
 154:	82 e3       	ldi	r24, 0x32	; 50
 156:	90 e0       	ldi	r25, 0x00	; 0
 158:	b3 d0       	rcall	.+358    	; 0x2c0 <__set_port_mode>
	double __tmp = ((F_CPU) / 4e3) * __ms;
	if (__tmp < 1.0)
		__ticks = 1;
	else if (__tmp > 65535)
		__ticks = 0;	/* i.e. 65536 */
 15a:	80 e0       	ldi	r24, 0x00	; 0
 15c:	90 e0       	ldi	r25, 0x00	; 0
 15e:	fc 01       	movw	r30, r24
 160:	31 97       	sbiw	r30, 0x01	; 1
 162:	f1 f7       	brne	.-4      	; 0x160 <led_init+0x16>
			_delay_ms(200);
 		    LED_Off(0);
 164:	90 9a       	sbi	0x12, 0	; 18
 		    LED_Off(1);
 166:	91 9a       	sbi	0x12, 1	; 18
 */
void
_delay_loop_2(uint16_t __count)
{
	__asm__ volatile (
 168:	01 97       	sbiw	r24, 0x01	; 1
 16a:	f1 f7       	brne	.-4      	; 0x168 <led_init+0x1e>
 16c:	c1 50       	subi	r28, 0x01	; 1
 16e:	c7 ff       	sbrs	r28, 7
 170:	ee cf       	rjmp	.-36     	; 0x14e <led_init+0x4>
 172:	cf 91       	pop	r28
 174:	08 95       	ret

00000176 <sharp_flash>:
			_delay_ms(200);
		}

}	


char mod=2;


void sharp_flash()
{
 176:	cf 93       	push	r28
 178:	df 93       	push	r29
 17a:	20 91 7f 00 	lds	r18, 0x007F
 17e:	82 2f       	mov	r24, r18
 180:	99 27       	eor	r25, r25
 182:	bc 01       	movw	r22, r24
 184:	62 70       	andi	r22, 0x02	; 2
 186:	70 70       	andi	r23, 0x00	; 0
 188:	ac 01       	movw	r20, r24
 18a:	44 70       	andi	r20, 0x04	; 4
 18c:	50 70       	andi	r21, 0x00	; 0
 18e:	a0 e2       	ldi	r26, 0x20	; 32
 190:	be e4       	ldi	r27, 0x4E	; 78
 192:	c0 e0       	ldi	r28, 0x00	; 0
 194:	d0 e0       	ldi	r29, 0x00	; 0
 196:	32 e1       	ldi	r19, 0x12	; 18
    char x;

    for(x=0;x<19;x++){
   	   LED_On(mod&2?0:7);
 198:	82 b3       	in	r24, 0x12	; 18
 19a:	99 27       	eor	r25, r25
 19c:	61 15       	cp	r22, r1
 19e:	71 05       	cpc	r23, r1
 1a0:	11 f0       	breq	.+4      	; 0x1a6 <sharp_flash+0x30>
 1a2:	8e 7f       	andi	r24, 0xFE	; 254
 1a4:	01 c0       	rjmp	.+2      	; 0x1a8 <sharp_flash+0x32>
 1a6:	8f 77       	andi	r24, 0x7F	; 127
 1a8:	82 bb       	out	0x12, r24	; 18
	   LED_On(mod&4?1:7);
 1aa:	82 b3       	in	r24, 0x12	; 18
 1ac:	99 27       	eor	r25, r25
 1ae:	41 15       	cp	r20, r1
 1b0:	51 05       	cpc	r21, r1
 1b2:	11 f0       	breq	.+4      	; 0x1b8 <sharp_flash+0x42>
 1b4:	8d 7f       	andi	r24, 0xFD	; 253
 1b6:	01 c0       	rjmp	.+2      	; 0x1ba <sharp_flash+0x44>
 1b8:	8f 77       	andi	r24, 0x7F	; 127
 1ba:	82 bb       	out	0x12, r24	; 18
 */
void
_delay_loop_2(uint16_t __count)
{
	__asm__ volatile (
 1bc:	cd 01       	movw	r24, r26
 1be:	01 97       	sbiw	r24, 0x01	; 1
 1c0:	f1 f7       	brne	.-4      	; 0x1be <sharp_flash+0x48>

       _delay_ms(20);
	 

	   LED_Off(0);
 1c2:	90 9a       	sbi	0x12, 0	; 18
 	   LED_Off(1);
 1c4:	91 9a       	sbi	0x12, 1	; 18
 */
void
_delay_loop_2(uint16_t __count)
{
	__asm__ volatile (
 1c6:	cd 01       	movw	r24, r26
 1c8:	01 97       	sbiw	r24, 0x01	; 1
 1ca:	f1 f7       	brne	.-4      	; 0x1c8 <sharp_flash+0x52>
 1cc:	31 50       	subi	r19, 0x01	; 1
 1ce:	37 ff       	sbrs	r19, 7
 1d0:	e3 cf       	rjmp	.-58     	; 0x198 <sharp_flash+0x22>
	   	_delay_ms(20);
	}
   mod++;
 1d2:	2f 5f       	subi	r18, 0xFF	; 255
 1d4:	20 93 7f 00 	sts	0x007F, r18
 1d8:	df 91       	pop	r29
 1da:	cf 91       	pop	r28
 1dc:	08 95       	ret

000001de <pwm_demo>:


void pwm_demo()
{
	_set_bit(PORTB, 2);//led
 1de:	c2 9a       	sbi	0x18, 2	; 24
	_clear_bit(PORTB,1);
 1e0:	c1 98       	cbi	0x18, 1	; 24
	_clear_bit(PORTB,0); //pwm 
 1e2:	c0 98       	cbi	0x18, 0	; 24
		__ticks = 1;
	else if (__tmp > 65535)
		__ticks = 0;	/* i.e. 65536 */
	else
		__ticks = (uint16_t)__tmp;
 1e4:	80 ed       	ldi	r24, 0xD0	; 208
 1e6:	97 e0       	ldi	r25, 0x07	; 7
 1e8:	01 97       	sbiw	r24, 0x01	; 1
 1ea:	f1 f7       	brne	.-4      	; 0x1e8 <pwm_demo+0xa>
	_delay_ms(2);
       
	_set_bit(PORTB, 0); //pwm
 1ec:	c0 9a       	sbi	0x18, 0	; 24
    _clear_bit(PORTB, 2);//led
 1ee:	c2 98       	cbi	0x18, 2	; 24
	_set_bit(PORTB,1);
 1f0:	c1 9a       	sbi	0x18, 1	; 24
	double __tmp = ((F_CPU) / 3e6) * __us;
	if (__tmp < 1.0)
		__ticks = 1;
	else if (__tmp > 255)
		__ticks = 0;	/* i.e. 256 */
 1f2:	80 e0       	ldi	r24, 0x00	; 0
 1f4:	8a 95       	dec	r24
 1f6:	f1 f7       	brne	.-4      	; 0x1f4 <pwm_demo+0x16>
 1f8:	08 95       	ret

000001fa <pwm_init>:
	_delay_us(500);

}




/* FAST PWM mode
The counter counts from BOTTOM to TOP then restarts from BOTTOM. 


---------------
TCCR0A :  COM0A1 COM0A0 

WGM2:0 
TOP is defined as 0xFF when WGM2:0 = 3  *
and OCR0A when WGM2:0 = 7

COM01 COM00: 
1       0     Clear OC0A on Compare Match, set OC0A at TOP *

------------------
TCCR0B :
WGM20  

CS02 CS01 CS00 ：
0     1      0       clkI/O/8 (From prescaler)


------------------
TCNT0  -

OCR0A C Output Compare Register , cmpare to TCN0

GTCCR C General Timer/Counter Control Register
             Bit              7            0
                            TSM          PSR10     
             Read/Write     R/W           R/W
             Initial Value    0             0
            Bit 7 C TSM: Timer/Counter Synchronization Mode
            Writing the TSM bit to one activates the Timer/Counter Synchronization mode. In this mode, the
            value that is written to the PSR10 bit is kept, hence keeping the Prescaler Reset signal asserted.
            This ensures that the Timer/Counter is halted and can be configured without the risk of advanc-
            ing during configuration. When the TSM bit is written to zero, the PSR10 bit is cleared by
            hardware, and the Timer/Counter start counting.
            Bit 0 C PSR10: Prescaler Reset Timer/Counter0
            When this bit is one, the Timer/Counter0 prescaler will be Reset. This bit is normally cleared
            immediately by hardware, except ifexcept )

*/



/*channal A, TOP= ICR1, match:OCR1A, PWMhz= 15khz , fcpu=4Mhz*/
void pwm_init()
{

  TCCR1A  =   _nm8(0b10,WGM10,WGM11)  |  ( _nm8(0b10, COM1A0,COM1A1) );  
 1fa:	82 e8       	ldi	r24, 0x82	; 130
 1fc:	8f bd       	out	0x2f, r24	; 47
  TCCR1B  =   _nm8(0b001, CS10,CS12)  | (_nm8(0b11,WGM12,WGM13));     
 1fe:	89 e1       	ldi	r24, 0x19	; 25
 200:	8e bd       	out	0x2e, r24	; 46
  TCNT1  = 0;
 202:	1d bc       	out	0x2d, r1	; 45
 204:	1c bc       	out	0x2c, r1	; 44
  ICR1 = 0xff ;  /* top = 0; */
 206:	8f ef       	ldi	r24, 0xFF	; 255
 208:	90 e0       	ldi	r25, 0x00	; 0
 20a:	97 bd       	out	0x27, r25	; 39
 20c:	86 bd       	out	0x26, r24	; 38
  
  //only attiny13?  GTCCR = 1; /*reset prescaler*/
  _port_mode(PORTB,1,OUTPUT);
 20e:	21 e0       	ldi	r18, 0x01	; 1
 210:	42 2f       	mov	r20, r18
 212:	62 2f       	mov	r22, r18
 214:	88 e3       	ldi	r24, 0x38	; 56
 216:	90 e0       	ldi	r25, 0x00	; 0
 218:	53 d0       	rcall	.+166    	; 0x2c0 <__set_port_mode>
 21a:	08 95       	ret

0000021c <pwm_setduty>:

}

void pwm_setduty(unsigned char duty)
{
  OCR1A = duty;
 21c:	99 27       	eor	r25, r25
 21e:	9b bd       	out	0x2b, r25	; 43
 220:	8a bd       	out	0x2a, r24	; 42
 222:	08 95       	ret

00000224 <init_74hc595>:

void init_74hc595(void)
{
    _port_mode(PORT_74HC595, CLK,OUTPUT);
    _port_mode(PORT_74HC595, LATCH,OUTPUT);
 224:	25 e0       	ldi	r18, 0x05	; 5
 226:	42 2f       	mov	r20, r18
 228:	61 e0       	ldi	r22, 0x01	; 1
 22a:	82 e3       	ldi	r24, 0x32	; 50
 22c:	90 e0       	ldi	r25, 0x00	; 0
 22e:	48 d0       	rcall	.+144    	; 0x2c0 <__set_port_mode>
    _port_mode(PORT_74HC595, SDI,OUTPUT);
 230:	26 e0       	ldi	r18, 0x06	; 6
 232:	42 2f       	mov	r20, r18
 234:	61 e0       	ldi	r22, 0x01	; 1
 236:	82 e3       	ldi	r24, 0x32	; 50
 238:	90 e0       	ldi	r25, 0x00	; 0
 23a:	42 d0       	rcall	.+132    	; 0x2c0 <__set_port_mode>
   
 23c:	27 e0       	ldi	r18, 0x07	; 7
 23e:	42 2f       	mov	r20, r18
 240:	61 e0       	ldi	r22, 0x01	; 1
 242:	82 e3       	ldi	r24, 0x32	; 50
 244:	90 e0       	ldi	r25, 0x00	; 0
 246:	3c d0       	rcall	.+120    	; 0x2c0 <__set_port_mode>
 248:	08 95       	ret

0000024a <shiftout>:
}

void shiftout(unsigned char data)
{
	char i=0;
	for(i=0;i<8;i++){
	   delay_io;
 24a:	2a e1       	ldi	r18, 0x1A	; 26
 24c:	30 e0       	ldi	r19, 0x00	; 0
 24e:	40 e0       	ldi	r20, 0x00	; 0
 250:	50 e0       	ldi	r21, 0x00	; 0
 252:	a8 2f       	mov	r26, r24
 254:	bb 27       	eor	r27, r27
 256:	60 e0       	ldi	r22, 0x00	; 0
 258:	70 e0       	ldi	r23, 0x00	; 0
 25a:	e7 e0       	ldi	r30, 0x07	; 7
*/
void
_delay_loop_1(uint8_t __count)
{
	__asm__ volatile (
 25c:	82 2f       	mov	r24, r18
 25e:	8a 95       	dec	r24
 260:	f1 f7       	brne	.-4      	; 0x25e <shiftout+0x14>
	  
	   if((data>>i)&0x1)
	    _set_bit(PORT_74HC595, SDI);
	   else
	     _clear_bit(PORT_74HC595, SDI);
 262:	cd 01       	movw	r24, r26
 264:	06 2e       	mov	r0, r22
 266:	02 c0       	rjmp	.+4      	; 0x26c <shiftout+0x22>
 268:	95 95       	asr	r25
 26a:	87 95       	ror	r24
 26c:	0a 94       	dec	r0
 26e:	e2 f7       	brpl	.-8      	; 0x268 <shiftout+0x1e>
 270:	80 ff       	sbrs	r24, 0
 272:	02 c0       	rjmp	.+4      	; 0x278 <shiftout+0x2e>

 274:	97 9a       	sbi	0x12, 7	; 18
 276:	01 c0       	rjmp	.+2      	; 0x27a <shiftout+0x30>
	   delay_io;
	  _set_bit(PORT_74HC595,CLK); 
 278:	97 98       	cbi	0x12, 7	; 18
*/
void
_delay_loop_1(uint8_t __count)
{
	__asm__ volatile (
 27a:	82 2f       	mov	r24, r18
 27c:	8a 95       	dec	r24
 27e:	f1 f7       	brne	.-4      	; 0x27c <shiftout+0x32>
       delay_io;
	  _clear_bit(PORT_74HC595, CLK);
	  		
 280:	95 9a       	sbi	0x12, 5	; 18
*/
void
_delay_loop_1(uint8_t __count)
{
	__asm__ volatile (
 282:	82 2f       	mov	r24, r18
 284:	8a 95       	dec	r24
 286:	f1 f7       	brne	.-4      	; 0x284 <shiftout+0x3a>
   }

 288:	95 98       	cbi	0x12, 5	; 18
 28a:	e1 50       	subi	r30, 0x01	; 1
 28c:	6f 5f       	subi	r22, 0xFF	; 255
 28e:	7f 4f       	sbci	r23, 0xFF	; 255
 290:	e7 ff       	sbrs	r30, 7
 292:	e4 cf       	rjmp	.-56     	; 0x25c <shiftout+0x12>
 294:	08 95       	ret

00000296 <write_74hc595>:
}
void write_74hc595(unsigned char data)
{
	_clear_bit(PORT_74HC595,CLK); //prepare send data
	delay_io;
    _clear_bit(PORT_74HC595,LATCH); //prepare open latch
 296:	1f 93       	push	r17
    delay_io;
 298:	95 98       	cbi	0x12, 5	; 18
		__ticks = 1;
	else if (__tmp > 255)
		__ticks = 0;	/* i.e. 256 */
	else
		__ticks = (uint8_t)__tmp;
 29a:	1a e1       	ldi	r17, 0x1A	; 26
 29c:	91 2f       	mov	r25, r17
 29e:	9a 95       	dec	r25
 2a0:	f1 f7       	brne	.-4      	; 0x29e <write_74hc595+0x8>
	  
	shiftout(data);
 2a2:	96 98       	cbi	0x12, 6	; 18
*/
void
_delay_loop_1(uint8_t __count)
{
	__asm__ volatile (
 2a4:	91 2f       	mov	r25, r17
 2a6:	9a 95       	dec	r25
 2a8:	f1 f7       	brne	.-4      	; 0x2a6 <write_74hc595+0x10>
    delay_io;

    _set_bit(PORT_74HC595,CLK); //prepare send data
 2aa:	cf df       	rcall	.-98     	; 0x24a <shiftout>
*/
void
_delay_loop_1(uint8_t __count)
{
	__asm__ volatile (
 2ac:	81 2f       	mov	r24, r17
 2ae:	8a 95       	dec	r24
 2b0:	f1 f7       	brne	.-4      	; 0x2ae <write_74hc595+0x18>
	delay_io;
    _set_bit(PORT_74HC595,LATCH); //prepare open latch
   
 2b2:	95 9a       	sbi	0x12, 5	; 18
*/
void
_delay_loop_1(uint8_t __count)
{
	__asm__ volatile (
 2b4:	81 2f       	mov	r24, r17
 2b6:	8a 95       	dec	r24
 2b8:	f1 f7       	brne	.-4      	; 0x2b6 <write_74hc595+0x20>
}

 2ba:	96 9a       	sbi	0x12, 6	; 18
 2bc:	1f 91       	pop	r17
 2be:	08 95       	ret

000002c0 <__set_port_mode>:
#include "include/avrio.h"


void __set_port_mode(volatile char* port_addr, char mode, char n, char m)
{
 2c0:	dc 01       	movw	r26, r24
 2c2:	72 2f       	mov	r23, r18
	if(INPUT == mode){
 2c4:	66 23       	and	r22, r22
 2c6:	f1 f4       	brne	.+60     	; 0x304 <__set_port_mode+0x44>
    	/* DDR */
		(*(volatile uint8_t *)(port_addr-1) ) &= ~(_NM_MASK8(n,m));  /*enable input*/  
 2c8:	fc 01       	movw	r30, r24
 2ca:	31 97       	sbiw	r30, 0x01	; 1
 2cc:	2f ef       	ldi	r18, 0xFF	; 255
 2ce:	30 e0       	ldi	r19, 0x00	; 0
 2d0:	c9 01       	movw	r24, r18
 2d2:	02 c0       	rjmp	.+4      	; 0x2d8 <__set_port_mode+0x18>
 2d4:	88 0f       	add	r24, r24
 2d6:	99 1f       	adc	r25, r25
 2d8:	4a 95       	dec	r20
 2da:	e2 f7       	brpl	.-8      	; 0x2d4 <__set_port_mode+0x14>
 2dc:	ac 01       	movw	r20, r24
 2de:	87 e0       	ldi	r24, 0x07	; 7
 2e0:	90 e0       	ldi	r25, 0x00	; 0
 2e2:	87 1b       	sub	r24, r23
 2e4:	91 09       	sbc	r25, r1
 2e6:	02 c0       	rjmp	.+4      	; 0x2ec <__set_port_mode+0x2c>
 2e8:	35 95       	asr	r19
 2ea:	27 95       	ror	r18
 2ec:	8a 95       	dec	r24
 2ee:	e2 f7       	brpl	.-8      	; 0x2e8 <__set_port_mode+0x28>
 2f0:	24 23       	and	r18, r20
 2f2:	92 2f       	mov	r25, r18
 2f4:	90 95       	com	r25
 2f6:	80 81       	ld	r24, Z
 2f8:	89 23       	and	r24, r25
 2fa:	80 83       	st	Z, r24
    	/* PORT */
		(*(volatile uint8_t *)port_addr) |= (_NM_MASK8(n,m)) ; /*pull-up-enable*/  
 2fc:	8c 91       	ld	r24, X
 2fe:	82 2b       	or	r24, r18
 300:	8c 93       	st	X, r24
 302:	08 95       	ret
	}else if(OUTPUT == mode){
 304:	61 30       	cpi	r22, 0x01	; 1
 306:	c9 f4       	brne	.+50     	; 0x33a <__set_port_mode+0x7a>
		/* DDR */
		(*(volatile uint8_t *)(port_addr-1) ) |= _NM_MASK8(n,m);  /*enable output*/  
 308:	fc 01       	movw	r30, r24
 30a:	31 97       	sbiw	r30, 0x01	; 1
 30c:	2f ef       	ldi	r18, 0xFF	; 255
 30e:	30 e0       	ldi	r19, 0x00	; 0
 310:	c9 01       	movw	r24, r18
 312:	02 c0       	rjmp	.+4      	; 0x318 <__set_port_mode+0x58>
 314:	88 0f       	add	r24, r24
 316:	99 1f       	adc	r25, r25
 318:	4a 95       	dec	r20
 31a:	e2 f7       	brpl	.-8      	; 0x314 <__set_port_mode+0x54>
 31c:	ac 01       	movw	r20, r24
 31e:	87 e0       	ldi	r24, 0x07	; 7
 320:	90 e0       	ldi	r25, 0x00	; 0
 322:	87 1b       	sub	r24, r23
 324:	91 09       	sbc	r25, r1
 326:	02 c0       	rjmp	.+4      	; 0x32c <__set_port_mode+0x6c>
 328:	35 95       	asr	r19
 32a:	27 95       	ror	r18
 32c:	8a 95       	dec	r24
 32e:	e2 f7       	brpl	.-8      	; 0x328 <__set_port_mode+0x68>
 330:	94 2f       	mov	r25, r20
 332:	92 23       	and	r25, r18
 334:	80 81       	ld	r24, Z
 336:	89 2b       	or	r24, r25
 338:	80 83       	st	Z, r24
 33a:	08 95       	ret

0000033c <_delay_s>:
 */
void
_delay_loop_2(uint16_t __count)
{
	__asm__ volatile (
 33c:	28 2f       	mov	r18, r24
 33e:	21 50       	subi	r18, 0x01	; 1
 340:	2f 3f       	cpi	r18, 0xFF	; 255
 342:	81 f0       	breq	.+32     	; 0x364 <_delay_s+0x28>
 344:	e0 e0       	ldi	r30, 0x00	; 0
 346:	f0 e0       	ldi	r31, 0x00	; 0
 348:	cf 01       	movw	r24, r30
 34a:	01 97       	sbiw	r24, 0x01	; 1
 34c:	f1 f7       	brne	.-4      	; 0x34a <_delay_s+0xe>
 34e:	cf 01       	movw	r24, r30
 350:	01 97       	sbiw	r24, 0x01	; 1
 352:	f1 f7       	brne	.-4      	; 0x350 <_delay_s+0x14>
 354:	cf 01       	movw	r24, r30
 356:	01 97       	sbiw	r24, 0x01	; 1
 358:	f1 f7       	brne	.-4      	; 0x356 <_delay_s+0x1a>
 35a:	cf 01       	movw	r24, r30
 35c:	01 97       	sbiw	r24, 0x01	; 1
 35e:	f1 f7       	brne	.-4      	; 0x35c <_delay_s+0x20>
 360:	21 50       	subi	r18, 0x01	; 1
 362:	90 f7       	brcc	.-28     	; 0x348 <_delay_s+0xc>
 364:	08 95       	ret

00000366 <hd44870_send>:
#define io_delay()   _delay_us(14)
#endif

static void hd44870_send(unsigned char data, char is_cmd) 
{
 366:	38 2f       	mov	r19, r24
		__ticks = 1;
	else if (__tmp > 255)
		__ticks = 0;	/* i.e. 256 */
	else
		__ticks = (uint8_t)__tmp;
 368:	92 e1       	ldi	r25, 0x12	; 18
 36a:	9a 95       	dec	r25
 36c:	f1 f7       	brne	.-4      	; 0x36a <hd44870_send+0x4>
  io_delay();
  
  LCD_CTR_PORT &=~(LCD_EN|LCD_RW);       
 36e:	92 b3       	in	r25, 0x12	; 18
 370:	9f 73       	andi	r25, 0x3F	; 63
 372:	92 bb       	out	0x12, r25	; 18
  
  //io_delay();
  
  if(is_cmd)
 374:	66 23       	and	r22, r22
 376:	11 f0       	breq	.+4      	; 0x37c <hd44870_send+0x16>
  	 LCD_CTR_PORT&=~LCD_RS;  //RS=0，command
 378:	95 98       	cbi	0x12, 5	; 18
 37a:	01 c0       	rjmp	.+2      	; 0x37e <hd44870_send+0x18>
  else
  	 LCD_CTR_PORT|=LCD_RS;  //RS=1, data
 37c:	95 9a       	sbi	0x12, 5	; 18
		__ticks = 1;
	else if (__tmp > 255)
		__ticks = 0;	/* i.e. 256 */
	else
		__ticks = (uint8_t)__tmp;
 37e:	92 e1       	ldi	r25, 0x12	; 18
 380:	89 2f       	mov	r24, r25
 382:	8a 95       	dec	r24
 384:	f1 f7       	brne	.-4      	; 0x382 <hd44870_send+0x1c>
  
  io_delay();
  
  /* 4 MSB*/
  LCD_DATA_PORT&=0Xf0;    
 386:	85 b3       	in	r24, 0x15	; 21
 388:	80 7f       	andi	r24, 0xF0	; 240
 38a:	85 bb       	out	0x15, r24	; 21
  LCD_DATA_PORT|=(data>>4)&0xf; 
 38c:	23 2f       	mov	r18, r19
 38e:	22 95       	swap	r18
 390:	2f 70       	andi	r18, 0x0F	; 15
 392:	85 b3       	in	r24, 0x15	; 21
 394:	82 2b       	or	r24, r18
 396:	85 bb       	out	0x15, r24	; 21
*/
void
_delay_loop_1(uint8_t __count)
{
	__asm__ volatile (
 398:	89 2f       	mov	r24, r25
 39a:	8a 95       	dec	r24
 39c:	f1 f7       	brne	.-4      	; 0x39a <hd44870_send+0x34>
  
  io_delay();
  LCD_CTR_PORT |=LCD_EN;  
 39e:	97 9a       	sbi	0x12, 7	; 18
*/
void
_delay_loop_1(uint8_t __count)
{
	__asm__ volatile (
 3a0:	89 2f       	mov	r24, r25
 3a2:	8a 95       	dec	r24
 3a4:	f1 f7       	brne	.-4      	; 0x3a2 <hd44870_send+0x3c>
  io_delay(); 
  LCD_CTR_PORT &=~LCD_EN;   
 3a6:	97 98       	cbi	0x12, 7	; 18
*/
void
_delay_loop_1(uint8_t __count)
{
	__asm__ volatile (
 3a8:	89 2f       	mov	r24, r25
 3aa:	8a 95       	dec	r24
 3ac:	f1 f7       	brne	.-4      	; 0x3aa <hd44870_send+0x44>

  io_delay();
  
  /*send low 4 lsb*/
  LCD_DATA_PORT&=0xf0;         
 3ae:	85 b3       	in	r24, 0x15	; 21
 3b0:	80 7f       	andi	r24, 0xF0	; 240
 3b2:	85 bb       	out	0x15, r24	; 21
  LCD_DATA_PORT|=data&0xf; 
 3b4:	3f 70       	andi	r19, 0x0F	; 15
 3b6:	85 b3       	in	r24, 0x15	; 21
 3b8:	83 2b       	or	r24, r19
 3ba:	85 bb       	out	0x15, r24	; 21
*/
void
_delay_loop_1(uint8_t __count)
{
	__asm__ volatile (
 3bc:	89 2f       	mov	r24, r25
 3be:	8a 95       	dec	r24
 3c0:	f1 f7       	brne	.-4      	; 0x3be <hd44870_send+0x58>
  io_delay();

  LCD_CTR_PORT |=LCD_EN;   
 3c2:	97 9a       	sbi	0x12, 7	; 18
*/
void
_delay_loop_1(uint8_t __count)
{
	__asm__ volatile (
 3c4:	89 2f       	mov	r24, r25
 3c6:	8a 95       	dec	r24
 3c8:	f1 f7       	brne	.-4      	; 0x3c6 <hd44870_send+0x60>
  io_delay(); 
  LCD_CTR_PORT &=~LCD_EN;  
 3ca:	97 98       	cbi	0x12, 7	; 18
 3cc:	08 95       	ret

000003ce <lcd1602_init>:
  
  
}

#define send_cmd(data) hd44870_send(data,1)
#define send_data(data) hd44870_send(data,0)

void lcd1602_init(void)    
{
 3ce:	0f 93       	push	r16
 3d0:	1f 93       	push	r17
  io_init();
 3d2:	23 e0       	ldi	r18, 0x03	; 3
 3d4:	40 e0       	ldi	r20, 0x00	; 0
 3d6:	61 e0       	ldi	r22, 0x01	; 1
 3d8:	85 e3       	ldi	r24, 0x35	; 53
 3da:	90 e0       	ldi	r25, 0x00	; 0
 3dc:	71 df       	rcall	.-286    	; 0x2c0 <__set_port_mode>
 3de:	27 e0       	ldi	r18, 0x07	; 7
 3e0:	45 e0       	ldi	r20, 0x05	; 5
 3e2:	61 e0       	ldi	r22, 0x01	; 1
 3e4:	82 e3       	ldi	r24, 0x32	; 50
 3e6:	90 e0       	ldi	r25, 0x00	; 0
 3e8:	6b df       	rcall	.-298    	; 0x2c0 <__set_port_mode>

  send_cmd(0x33);
 3ea:	61 e0       	ldi	r22, 0x01	; 1
 3ec:	83 e3       	ldi	r24, 0x33	; 51
 3ee:	bb df       	rcall	.-138    	; 0x366 <hd44870_send>
		__ticks = 1;
	else if (__tmp > 65535)
		__ticks = 0;	/* i.e. 65536 */
	else
		__ticks = (uint16_t)__tmp;
 3f0:	00 e5       	ldi	r16, 0x50	; 80
 3f2:	13 ec       	ldi	r17, 0xC3	; 195
 3f4:	c8 01       	movw	r24, r16
 3f6:	01 97       	sbiw	r24, 0x01	; 1
 3f8:	f1 f7       	brne	.-4      	; 0x3f6 <lcd1602_init+0x28>
  _delay_ms(50);
  send_cmd(0x32);
 3fa:	61 e0       	ldi	r22, 0x01	; 1
 3fc:	82 e3       	ldi	r24, 0x32	; 50
 3fe:	b3 df       	rcall	.-154    	; 0x366 <hd44870_send>
 */
void
_delay_loop_2(uint16_t __count)
{
	__asm__ volatile (
 400:	c8 01       	movw	r24, r16
 402:	01 97       	sbiw	r24, 0x01	; 1
 404:	f1 f7       	brne	.-4      	; 0x402 <lcd1602_init+0x34>
  _delay_ms(50);

  send_cmd(0x28); /* ４位数据线，５＊１０字体 */
 406:	61 e0       	ldi	r22, 0x01	; 1
 408:	88 e2       	ldi	r24, 0x28	; 40
 40a:	ad df       	rcall	.-166    	; 0x366 <hd44870_send>
 */
void
_delay_loop_2(uint16_t __count)
{
	__asm__ volatile (
 40c:	c8 01       	movw	r24, r16
 40e:	01 97       	sbiw	r24, 0x01	; 1
 410:	f1 f7       	brne	.-4      	; 0x40e <lcd1602_init+0x40>
  _delay_ms(50);
  
  send_cmd(0x0c); /*开显示，无光标， 0xf：开光标并闪烁*/   
 412:	61 e0       	ldi	r22, 0x01	; 1
 414:	8c e0       	ldi	r24, 0x0C	; 12
 416:	a7 df       	rcall	.-178    	; 0x366 <hd44870_send>
 */
void
_delay_loop_2(uint16_t __count)
{
	__asm__ volatile (
 418:	c8 01       	movw	r24, r16
 41a:	01 97       	sbiw	r24, 0x01	; 1
 41c:	f1 f7       	brne	.-4      	; 0x41a <lcd1602_init+0x4c>
  _delay_ms(50);

  send_cmd(0x06);  /* 光标自动右移，整屏不移动 */
 41e:	61 e0       	ldi	r22, 0x01	; 1
 420:	86 e0       	ldi	r24, 0x06	; 6
 422:	a1 df       	rcall	.-190    	; 0x366 <hd44870_send>
 */
void
_delay_loop_2(uint16_t __count)
{
	__asm__ volatile (
 424:	c8 01       	movw	r24, r16
 426:	01 97       	sbiw	r24, 0x01	; 1
 428:	f1 f7       	brne	.-4      	; 0x426 <lcd1602_init+0x58>
  _delay_ms(50);
  

  send_cmd(0x01);  /*清屏*/
 42a:	61 e0       	ldi	r22, 0x01	; 1
 42c:	86 2f       	mov	r24, r22
 42e:	9b df       	rcall	.-202    	; 0x366 <hd44870_send>
	double __tmp = ((F_CPU) / 4e3) * __ms;
	if (__tmp < 1.0)
		__ticks = 1;
	else if (__tmp > 65535)
		__ticks = 0;	/* i.e. 65536 */
 430:	80 e0       	ldi	r24, 0x00	; 0
 432:	90 e0       	ldi	r25, 0x00	; 0
 434:	01 97       	sbiw	r24, 0x01	; 1
 436:	f1 f7       	brne	.-4      	; 0x434 <lcd1602_init+0x66>
 438:	1f 91       	pop	r17
 43a:	0f 91       	pop	r16
 43c:	08 95       	ret

0000043e <lcd_cursor>:
  _delay_ms(100);
}



void lcd_cursor(char x, char y)
{
	send_cmd(x+(y?0xc0:0x80));  
 43e:	28 2f       	mov	r18, r24
 440:	33 27       	eor	r19, r19
 442:	66 23       	and	r22, r22
 444:	19 f0       	breq	.+6      	; 0x44c <lcd_cursor+0xe>
 446:	82 2f       	mov	r24, r18
 448:	80 54       	subi	r24, 0x40	; 64
 44a:	02 c0       	rjmp	.+4      	; 0x450 <lcd_cursor+0x12>
 44c:	82 2f       	mov	r24, r18
 44e:	80 58       	subi	r24, 0x80	; 128
 450:	61 e0       	ldi	r22, 0x01	; 1
 452:	89 df       	rcall	.-238    	; 0x366 <hd44870_send>
 454:	08 95       	ret

00000456 <lcd_puts>:
}

void lcd_puts(unsigned char *s) 
{
 456:	cf 93       	push	r28
 458:	df 93       	push	r29
 45a:	ec 01       	movw	r28, r24
    while (*s) 
    {
      send_data( *s );
      s ++;
 45c:	88 81       	ld	r24, Y
 45e:	88 23       	and	r24, r24
 460:	31 f0       	breq	.+12     	; 0x46e <__stack+0xf>
 462:	60 e0       	ldi	r22, 0x00	; 0
 464:	89 91       	ld	r24, Y+
 466:	7f df       	rcall	.-258    	; 0x366 <hd44870_send>
 468:	88 81       	ld	r24, Y
 46a:	88 23       	and	r24, r24
 46c:	d1 f7       	brne	.-12     	; 0x462 <__stack+0x3>
 46e:	df 91       	pop	r29
 470:	cf 91       	pop	r28
 472:	08 95       	ret

00000474 <lcd_putc>:
    }
     
}


void lcd_putc(char data) //列x=0~15,行y=0,1
{
  send_data( data);
 474:	60 e0       	ldi	r22, 0x00	; 0
 476:	77 df       	rcall	.-274    	; 0x366 <hd44870_send>
 478:	08 95       	ret

0000047a <lcd_scroll>:
}


/*
 * note: char in some C compiled is 'unsigned"
 */
void lcd_scroll(signed char steps)
{
 47a:	1f 93       	push	r17
 47c:	cf 93       	push	r28
 47e:	df 93       	push	r29
   char cmd = (steps>0)?0x1c:0x18;
 480:	18 16       	cp	r1, r24
 482:	14 f4       	brge	.+4      	; 0x488 <lcd_scroll+0xe>
 484:	1c e1       	ldi	r17, 0x1C	; 28
 486:	01 c0       	rjmp	.+2      	; 0x48a <lcd_scroll+0x10>
 488:	18 e1       	ldi	r17, 0x18	; 24
   short ssteps= (steps>0)?steps:(-steps);
 48a:	c8 2f       	mov	r28, r24
 48c:	dd 27       	eor	r29, r29
 48e:	c7 fd       	sbrc	r28, 7
 490:	d0 95       	com	r29
 492:	d7 ff       	sbrs	r29, 7
 494:	03 c0       	rjmp	.+6      	; 0x49c <lcd_scroll+0x22>
 496:	d0 95       	com	r29
 498:	c1 95       	neg	r28
 49a:	df 4f       	sbci	r29, 0xFF	; 255
*/
void
_delay_loop_1(uint8_t __count)
{
	__asm__ volatile (
 49c:	21 97       	sbiw	r28, 0x01	; 1
 49e:	8f ef       	ldi	r24, 0xFF	; 255
 4a0:	cf 3f       	cpi	r28, 0xFF	; 255
 4a2:	d8 07       	cpc	r29, r24
 4a4:	59 f0       	breq	.+22     	; 0x4bc <lcd_scroll+0x42>
   /* get negetive is unsafe, char range: -128 to +127, 
    * so -128 get negtive is overflow
	*/

   while(ssteps--)
   {
    	send_cmd((unsigned char)cmd);
 4a6:	61 e0       	ldi	r22, 0x01	; 1
 4a8:	81 2f       	mov	r24, r17
 4aa:	5d df       	rcall	.-326    	; 0x366 <hd44870_send>
		__ticks = 1;
	else if (__tmp > 255)
		__ticks = 0;	/* i.e. 256 */
	else
		__ticks = (uint8_t)__tmp;
 4ac:	82 e1       	ldi	r24, 0x12	; 18
 4ae:	8a 95       	dec	r24
 4b0:	f1 f7       	brne	.-4      	; 0x4ae <lcd_scroll+0x34>
 4b2:	21 97       	sbiw	r28, 0x01	; 1
 4b4:	8f ef       	ldi	r24, 0xFF	; 255
 4b6:	cf 3f       	cpi	r28, 0xFF	; 255
 4b8:	d8 07       	cpc	r29, r24
 4ba:	a9 f7       	brne	.-22     	; 0x4a6 <lcd_scroll+0x2c>
 4bc:	df 91       	pop	r29
 4be:	cf 91       	pop	r28
 4c0:	1f 91       	pop	r17
 4c2:	08 95       	ret
